(dp0
I0
S'example.pdf'
p1
sI1
S'a.txt'
p2
sI2
S'b.txt'
p3
sS'partial'
p4
I0
sS'results'
p5
I1
sS'leads'
p6
I2
sS'edu'
p7
I26
sS'go'
p8
I4
sS'chair'
p9
I5
sS're'
p10
I176
sS'elizabeth'
p11
I7
sS'father'
p12
I8
sS'contained'
p13
I9
sS'0'
p14
I10
sS'finally'
p15
I11
sS'does'
p16
I444
sS'voted'
p17
I13
sS'celia'
p18
I14
sS'pagination'
p19
I81
sS'include'
p20
I15
sS'adviser'
p21
I16
sS'string'
p22
I17
sS'very'
p23
I18
sS'intake'
p24
I92
sS'every'
p25
I20
sS'numbering'
p26
I394
sS'presented'
p27
I21
sS'list'
p28
I22
sS'item'
p29
I23
sS'heading'
p30
I25
sS'preface'
p31
I3
sS'sign'
p32
I27
sS'titles'
p33
I28
sS'video'
p34
I29
sS'pass'
p35
I30
sS'dissertation'
p36
I31
sS'what'
p37
I32
sS'errors'
p38
I33
sS'sub'
p39
I34
sS'unripe'
p40
I35
sS'section'
p41
I36
sS'caffeine'
p42
I37
sS'aayush'
p43
I38
sS'laurence'
p44
I271
sS'numeral'
p45
I40
sS'method'
p46
I41
sS'full'
p47
I42
sS'degree'
p48
I43
sS'here'
p49
I44
sS'100'
p50
I45
sS'appears'
p51
I46
sS'104'
p52
I47
sS'dry'
p53
I48
sS'copyright'
p54
I132
sS'items'
p55
I50
sS'study'
p56
I51
sS'title'
p57
I52
sS'35'
p58
I53
sS'credit'
p59
I54
sS'survey'
p60
I55
sS'studies'
p61
I56
sS'named'
p62
I57
sS'love'
p63
I58
sS'app'
p64
I59
sS'boolean'
p65
I60
sS'use'
p66
I61
sS'takes'
p67
I62
sS'consumption'
p68
I63
sS'contains'
p69
I65
sS'two'
p70
I66
sS'next'
p71
I67
sS'review1'
p72
I68
sS'vi'
p73
I355
sS'preview'
p74
I70
sS'more'
p75
I71
sS'appendix'
p76
I73
sS'93'
p77
I74
sS'92'
p78
I75
sS'iii'
p79
I76
sS'supplemental'
p80
I77
sS'must'
p81
I78
sS'me'
p82
I79
sS'helped'
p83
I358
sS'20xx'
p84
I19
sS'word'
p85
I82
sS'f'
p86
I83
sS'this'
p87
I84
sS'science'
p88
I85
sS'work'
p89
I86
sS'v'
p90
I87
sS'my'
p91
I88
sS'fulfillment'
p92
I89
sS'figure'
p93
I90
sS'process'
p94
I91
sS'caffeinated'
p95
I93
sS'sample'
p96
I94
sS'indicates'
p97
I95
sS'tag'
p98
I96
sS'numbers'
p99
I97
sS'sense'
p100
I98
sS'guarantee'
p101
I99
sS'information'
p102
I100
sS'requirements'
p103
I101
sS'turn'
p104
I102
sS'verify'
p105
I103
sS'discussion'
p106
I104
sS'six'
p107
I105
sS'1'
p108
I106
sS'how'
p109
I107
sS'methodology'
p110
I108
sS'assistant'
p111
I280
sS'ensure'
p112
I459
sS'product'
p113
I111
sS'145'
p114
I112
sS'intended'
p115
I113
sS'may'
p116
I114
sS'philosophy'
p117
I182
sS'hazard'
p118
I116
sS'faculty'
p119
I117
sS'end'
p120
I118
sS'spelling'
p121
I119
sS'data'
p122
I120
sS'short'
p123
I121
sS'prefers'
p124
I122
sS'perform'
p125
I367
sS'green'
p126
I124
sS'office'
p127
I126
sS'hierarchy'
p128
I127
sS'tropics'
p129
I128
sS'over'
p130
I129
sS'strongarm'
p131
I130
sS'committee'
p132
I131
sS'before'
p133
I133
sS'24'
p134
I134
sS'25'
p135
I135
sS'group'
p136
I136
sS'21'
p137
I137
sS'22'
p138
I138
sS'23'
p139
I139
sS'degrees'
p140
I140
sS'decaffeinated'
p141
I141
sS'2015'
p142
I142
sS'weeks'
p143
I143
sS'main'
p144
I144
sS'2010'
p145
I145
sS'them'
p146
I146
sS'food'
p147
I147
sS'matcher'
p148
I148
sS'material'
p149
I149
sS'awarding'
p150
I150
sS'effects'
p151
I152
sS'they'
p152
I153
sS'front'
p153
I154
sS'name'
p154
I155
sS'capricorn'
p155
I156
sS'augumenter'
p156
I157
sS'university'
p157
I158
sS'level'
p158
I159
sS'l'
p159
I160
sS'each'
p160
I161
sS'found'
p161
I162
sS'barerra'
p162
I163
sS'identifier'
p163
I164
sS'adobe'
p164
I165
sS'revised'
p165
I166
sS'related'
p166
I167
sS'literature'
p167
I168
sS'year'
p168
I169
sS'margins'
p169
I170
sS'revisions'
p170
I171
sS'shown'
p171
I172
sS'urbana'
p172
I173
sS'research'
p173
I174
sS'content'
p174
I175
sS'fellowship'
p175
I6
sS'participants'
p176
I177
sS'health'
p177
I178
sS'7'
p178
I179
sS'reader'
p179
I180
sS'correct'
p180
I181
sS'after'
p181
I115
sS'associate'
p182
I183
sS'favored'
p183
I184
sS'20'
p184
I312
sS'members'
p185
I185
sS'beginning'
p186
I186
sS'benefits'
p187
I187
sS'g'
p188
I188
sS'used'
p189
I377
sS'introduction'
p190
I203
sS'levels'
p191
I380
sS'inches'
p192
I484
sS'signature'
p193
I191
sS'corrections'
p194
I192
sS'first'
p195
I193
sS'features'
p196
I194
sS'thesis'
p197
I368
sS'nutritional'
p198
I195
sS'number'
p199
I196
sS'one'
p200
I197
sS'proofreading'
p201
I198
sS'done'
p202
I199
sS'cups'
p203
I200
sS'open'
p204
I201
sS'size'
p205
I202
sS'bears'
p206
I189
sS'top'
p207
I204
sS'least'
p208
I205
sS'their'
p209
I206
sS'2'
p210
I207
sS'master'
p211
I208
sS'listed'
p212
I209
sS'hundred'
p213
I210
sS'final'
p214
I211
sS'gives'
p215
I212
sS'nutrition'
p216
I213
sS'checklist'
p217
I214
sS'completed'
p218
I215
sS'exactly'
p219
I216
sS'part'
p220
I217
sS'flowers'
p221
I218
sS'11'
p222
I219
sS'distance'
p223
I220
sS'13'
p224
I221
sS'b'
p225
I222
sS'15'
p226
I223
sS'14'
p227
I224
sS'17'
p228
I283
sS'16'
p229
I226
sS'19'
p230
I227
sS'18'
p231
I228
sS'require'
p232
I229
sS'tree'
p233
I230
sS'submitted'
p234
I231
sS'project'
p235
I232
sS'matter'
p236
I233
sS'r'
p237
I234
sS'providing'
p238
I315
sS'files'
p239
I481
sS'footnote'
p240
I237
sS'turned'
p241
I238
sS'headings'
p242
I239
sS'have'
p243
I240
sS'any'
p244
I241
sS'contents'
p245
I242
sS'form'
p246
I243
sS'also'
p247
I244
sS'recommended'
p248
I245
sS'foreman'
p249
I246
sS'begin'
p250
I247
sS'sure'
p251
I248
sS'multiple'
p252
I249
sS'who'
p253
I250
sS'chart'
p254
I251
sS'most'
p255
I252
sS'letter'
p256
I253
sS'pages'
p257
I254
sS'icon'
p258
I255
sS'professor'
p259
I256
sS'gather'
p260
I257
sS'voting'
p261
I258
sS'typically'
p262
I259
sS'wording'
p263
I260
sS'akhil'
p264
I261
sS'signatures'
p265
I262
sS'text'
p266
I263
sS'chapters'
p267
I264
sS'lettered'
p268
I265
sS'copyrighted'
p269
I266
sS'find'
p270
I267
sS'completion'
p271
I268
sS'based'
p272
I269
sS'parameters'
p273
I49
sS'consistently'
p274
I39
sS'guidance'
p275
I272
sS'3'
p276
I273
sS'only'
p277
I274
sS'equivalents'
p278
I275
sS'8'
p279
I276
sS'inferior'
p280
I277
sS'do'
p281
I278
sS'means'
p282
I279
sS'champaign'
p283
I109
sS'foremost'
p284
I281
sS'12'
p285
I282
sS'showed'
p286
I225
sS'fields'
p287
I284
sS'remove'
p288
I285
sS'acknowledgments'
p289
I286
sS'processed'
p290
I287
sS'x'
p291
I288
sS'grad'
p292
I289
sS'husband'
p293
I290
sS'knowing'
p294
I291
sS'set'
p295
I292
sS'statistical'
p296
I293
sS'defense'
p297
I294
sS'college'
p298
I295
sS'are'
p299
I296
sS'encouraged'
p300
I297
sS'ways'
p301
I298
sS'subsequent'
p302
I299
sS'review'
p303
I300
sS'formatted'
p304
I301
sS'label'
p305
I302
sS'written'
p306
I303
sS'between'
p307
I304
sS'numerous'
p308
I305
sS'1reprinted'
p309
I306
sS'available'
p310
I307
sS'exam'
p311
I308
sS'missing'
p312
I309
sS'confusion'
p313
I310
sS'coffee'
p314
I356
sS'dedication'
p315
I311
sS'approval'
p316
I332
sS'optional'
p317
I313
sS'climate'
p318
I314
sS'proofread'
p319
I235
sS'last'
p320
I316
sS'many'
p321
I318
sS'against'
p322
I320
sS'etc'
p323
I322
sS's'
p324
I323
sS'figures'
p325
I324
sS'pdf'
p326
I325
sS'finds'
p327
I326
sS'comes'
p328
I327
sS'among'
p329
I328
sS'cancer'
p330
I329
sS'simple'
p331
I330
sS'62'
p332
I331
sS'69'
p333
I333
sS'expensive'
p334
I334
sS'been'
p335
I335
sS'much'
p336
I336
sS'extends'
p337
I409
sS'location'
p338
I410
sS'through'
p339
I339
sS'offered'
p340
I340
sS'c'
p341
I341
sS'roasting'
p342
I342
sS'general'
p343
I501
sS'161'
p344
I344
sS'those'
p345
I345
sS'multi'
p346
I346
sS'look'
p347
I347
sS'these'
p348
I348
sS'batch'
p349
I349
sS'n'
p350
I350
sS'endured'
p351
I351
sS'cont'
p352
I352
sS'ripe'
p353
I353
sS'almost'
p354
I354
sS'soil'
p355
I69
sS'it'
p356
I72
sS'iv'
p357
I357
sS'ii'
p358
I80
sS'itself'
p359
I359
sS'garvie'
p360
I360
sS'january'
p361
I429
sS'arabic'
p362
I361
sS'if'
p363
I363
sS'different'
p364
I364
sS'present'
p365
I365
sS'doctor'
p366
I366
sS'harshit'
p367
I123
sS'make'
p368
I125
sS'roman'
p369
I369
sS'same'
p370
I370
sS'member'
p371
I371
sS'matches'
p372
I372
sS'9'
p373
I373
sS'grows'
p374
I374
sS'difficult'
p375
I375
sS'week'
p376
I376
sS'finish'
p377
I151
sS'comprehensive'
p378
I378
sS'director'
p379
I379
sS'average'
p380
I498
sS'fruit'
p381
I190
sS'uses'
p382
I381
sS'user'
p383
I382
sS'student'
p384
I383
sS'numbered'
p385
I384
sS'lower'
p386
I385
sS'database'
p387
I386
sS'i'
p388
I387
sS'changes'
p389
I388
sS'no'
p390
I506
sS'analysis'
p391
I390
sS'without'
p392
I391
sS'english'
p393
I392
sS'position'
p394
I393
sS'rotated'
p395
I362
sS'reviewed'
p396
I395
sS'matchers'
p397
I396
sS'shape'
p398
I397
sS'thanks'
p399
I398
sS'human'
p400
I399
sS'northern'
p401
I270
sS'previous'
p402
I401
sS'tables'
p403
I402
sS'doctoral'
p404
I403
sS'bibliography'
p405
I404
sS'generator'
p406
I405
sS'conclusions'
p407
I319
sS'intends'
p408
I407
sS'source'
p409
I408
sS'parents'
p410
I337
sS'4'
p411
I338
sS'wet'
p412
I411
sS'compares'
p413
I512
sS'has'
p414
I413
sS'match'
p415
I414
sS'harvesting'
p416
I415
sS'read'
p417
I416
sS'showing'
p418
I417
sS'possible'
p419
I418
sS'makes'
p420
I419
sS'appendices'
p421
I420
sS'color'
p422
I421
sS'd'
p423
I423
sS'like'
p424
I422
sS'signal'
p425
I424
sS'51'
p426
I425
sS'specific'
p427
I426
sS'continue'
p428
I427
sS't'
p429
I428
sS'always'
p430
I317
sS'output'
p431
I430
sS'decimal'
p432
I431
sS'www'
p433
I432
sS'illinois'
p434
I510
sS'people'
p435
I433
sS'some'
p436
I434
sS'identified'
p437
I435
sS'110'
p438
I436
sS'table'
p439
I437
sS'images'
p440
I438
sS'questionnaire'
p441
I439
sS'mother'
p442
I406
sS'provided'
p443
I440
sS'shrub'
p444
I441
sS'bottom'
p445
I442
sS'recorded'
p446
I443
sS'critical'
p447
I12
sS'provider'
p448
I445
sS'anne'
p449
I446
sS'limitations'
p450
I447
sS'be'
p451
I448
sS'tda'
p452
I64
sS'processing'
p453
I450
sS'step'
p454
I451
sS'although'
p455
I452
sS'stage'
p456
I453
sS'chapter'
p457
I454
sS'completing'
p458
I455
sS'conferral'
p459
I456
sS'page'
p460
I457
sS'seeds'
p461
I458
sS'beans'
p462
I110
sS'permission'
p463
I460
sS'software'
p464
I461
sS'previously'
p465
I462
sS'image'
p466
I463
sS'within'
p467
I464
sS'references'
p468
I465
sS'frames'
p469
I466
sS'financial'
p470
I467
sS'consecutively'
p471
I468
sS'your'
p472
I469
sS'rely'
p473
I470
sS'additional'
p474
I471
sS'support'
p475
I472
sS'there'
p476
I473
sS'hazards'
p477
I474
sS'long'
p478
I475
sS'approved'
p479
I476
sS'start'
p480
I477
sS'joseph'
p481
I478
sS'dissertations'
p482
I479
sS'sections'
p483
I480
sS'function'
p484
I236
sS'head'
p485
I482
sS'complete'
p486
I483
sS'offering'
p487
I24
sS'6'
p488
I485
sS'extended'
p489
I486
sS'automated'
p490
I487
sS'implies'
p491
I522
sS'line'
p492
I489
sS'trying'
p493
I490
sS'true'
p494
I491
sS'count'
p495
I492
sS'places'
p496
I493
sS'placed'
p497
I494
sS'89'
p498
I495
sS'limit'
p499
I496
sS'stages'
p500
I497
sS'display'
p501
I321
sS'strongly'
p502
I499
sS'abstract'
p503
I500
sS'uin'
p504
I343
sS'warning'
p505
I502
sS'file'
p506
I503
sS'journal'
p507
I449
sS'check'
p508
I504
sS'fill'
p509
I505
sS'49'
p510
I389
sS'not'
p511
I507
sS'when'
p512
I508
sS'40'
p513
I509
sS'graduate'
p514
I400
sS'other'
p515
I511
sS'5'
p516
I412
sS'department'
p517
I513
sS'tif'
p518
I514
sS'10'
p519
I515
sS'requested'
p520
I516
sS'repeat'
p521
I517
sS'generates'
p522
I518
sS'students'
p523
I519
sS'included'
p524
I520
sS'friends'
p525
I521
sS'e'
p526
I488
sS'required'
p527
I523
sS'daily'
p528
I524
sS'hello'
p529
I529
sS'u'
p530
I526
sS'time'
p531
I527
sS'nutrient'
p532
I528
sS'strings'
p533
I525
s.