(lp0
(lp1
F0.012227614033891764
aF0.012227614033891764
aF0.012227614033891764
aF0.012227614033891764
aF0.006113807016945882
aF0.006113807016945882
aF0.006113807016945882
aF0.018341421050837647
aF0.006113807016945882
aF0.006113807016945882
aF0.018341421050837647
aF0.012227614033891764
aF0.006113807016945882
aF0.006113807016945882
aF0.012227614033891764
aF0.042796649118621174
aF0.03668284210167529
aF0.0
aF0.006113807016945882
aF0.018341421050837647
aF0.012227614033891764
aF0.006113807016945882
aF0.1345037543728094
aF0.0
aF0.006113807016945882
aF0.03056903508472941
aF0.12227614033891764
aF0.0
aF0.012227614033891764
aF0.0
aF0.006113807016945882
aF0.042796649118621174
aF0.012227614033891764
aF0.012227614033891764
aF0.006113807016945882
aF0.012227614033891764
aF0.048910456135567056
aF0.024455228067783528
aF0.0
aF0.018341421050837647
aF0.012227614033891764
aF0.012227614033891764
aF0.11616233332197176
aF0.042796649118621174
aF0.012227614033891764
aF0.012227614033891764
aF0.006113807016945882
aF0.012227614033891764
aF0.024455228067783528
aF0.0
aF0.006113807016945882
aF0.012227614033891764
aF0.10393471928808001
aF0.006113807016945882
aF0.012227614033891764
aF0.018341421050837647
aF0.006113807016945882
aF0.006113807016945882
aF0.006113807016945882
aF0.012227614033891764
aF0.0
aF0.03056903508472941
aF0.0
aF0.042796649118621174
aF0.03056903508472941
aF0.0
aF0.03056903508472941
aF0.006113807016945882
aF0.006113807016945882
aF0.012227614033891764
aF0.012227614033891764
aF0.012227614033891764
aF0.009170710525418823
aF0.05502426315251294
aF0.006113807016945882
aF0.006113807016945882
aF0.006113807016945882
aF0.024455228067783528
aF0.05502426315251294
aF0.018341421050837647
aF0.006113807016945882
aF0.006113807016945882
aF0.006113807016945882
aF0.006113807016945882
aF0.03056903508472941
aF0.018341421050837647
aF0.006113807016945882
aF0.012227614033891764
aF0.024455228067783528
aF0.012227614033891764
aF0.0672518771864047
aF0.006113807016945882
aF0.024455228067783528
aF0.012227614033891764
aF0.11004852630502587
aF0.012227614033891764
aF0.0
aF0.024455228067783528
aF0.006113807016945882
aF0.006113807016945882
aF0.0
aF0.24455228067783527
aF0.006113807016945882
aF0.018341421050837647
aF0.012227614033891764
aF0.006113807016945882
aF0.2873489297964565
aF0.006113807016945882
aF0.018341421050837647
aF0.012227614033891764
aF0.042796649118621174
aF0.012227614033891764
aF0.006113807016945882
aF0.012227614033891764
aF0.03056903508472941
aF0.03056903508472941
aF0.0
aF0.006113807016945882
aF0.012227614033891764
aF0.018341421050837647
aF0.006113807016945882
aF0.006113807016945882
aF0.012227614033891764
aF0.0
aF0.012227614033891764
aF0.012227614033891764
aF0.006113807016945882
aF0.012227614033891764
aF0.012227614033891764
aF0.0
aF0.018341421050837647
aF0.024455228067783528
aF0.012227614033891764
aF0.024455228067783528
aF0.012227614033891764
aF0.024455228067783528
aF0.006113807016945882
aF0.012227614033891764
aF0.012227614033891764
aF0.012227614033891764
aF0.006113807016945882
aF0.012227614033891764
aF0.006113807016945882
aF0.14061756138975526
aF0.03056903508472941
aF0.006113807016945882
aF0.0
aF0.006113807016945882
aF0.0
aF0.012227614033891764
aF0.006113807016945882
aF0.012227614033891764
aF0.018341421050837647
aF0.006113807016945882
aF0.006113807016945882
aF0.003056903508472941
aF0.012227614033891764
aF0.0
aF0.03056903508472941
aF0.012227614033891764
aF0.018341421050837647
aF0.018341421050837647
aF0.05502426315251294
aF0.012227614033891764
aF0.0
aF0.012227614033891764
aF0.006113807016945882
aF0.0
aF0.018341421050837647
aF0.006113807016945882
aF0.012227614033891764
aF0.012227614033891764
aF0.006113807016945882
aF0.024455228067783528
aF0.012227614033891764
aF0.0
aF0.012227614033891764
aF0.024455228067783528
aF0.003056903508472941
aF0.048910456135567056
aF0.012227614033891764
aF0.018341421050837647
aF0.006113807016945882
aF0.006113807016945882
aF0.012227614033891764
aF0.012227614033891764
aF0.012227614033891764
aF0.006113807016945882
aF0.03056903508472941
aF0.012227614033891764
aF0.048910456135567056
aF0.006113807016945882
aF0.006113807016945882
aF0.07947949122029647
aF0.006113807016945882
aF0.0
aF0.05502426315251294
aF0.03668284210167529
aF0.012227614033891764
aF0.012227614033891764
aF0.024455228067783528
aF0.012227614033891764
aF0.0
aF0.018341421050837647
aF0.024455228067783528
aF0.006113807016945882
aF0.006113807016945882
aF0.21398324559310586
aF0.03056903508472941
aF0.018341421050837647
aF0.006113807016945882
aF0.012227614033891764
aF0.0
aF0.012227614033891764
aF0.006113807016945882
aF0.006113807016945882
aF0.006113807016945882
aF0.006113807016945882
aF0.012227614033891764
aF0.006113807016945882
aF0.012227614033891764
aF0.006113807016945882
aF0.012227614033891764
aF0.006113807016945882
aF0.006113807016945882
aF0.0
aF0.006113807016945882
aF0.006113807016945882
aF0.006113807016945882
aF0.006113807016945882
aF0.03668284210167529
aF0.012227614033891764
aF0.012227614033891764
aF0.006113807016945882
aF0.006113807016945882
aF0.012227614033891764
aF0.006113807016945882
aF0.006113807016945882
aF0.006113807016945882
aF0.03668284210167529
aF0.018341421050837647
aF0.018341421050837647
aF0.0672518771864047
aF0.05502426315251294
aF0.012227614033891764
aF0.012227614033891764
aF0.012227614033891764
aF0.006113807016945882
aF0.006113807016945882
aF0.012227614033891764
aF0.03056903508472941
aF0.012227614033891764
aF0.006113807016945882
aF0.006113807016945882
aF0.05502426315251294
aF0.0
aF0.03056903508472941
aF0.006113807016945882
aF0.006113807016945882
aF0.006113807016945882
aF0.006113807016945882
aF0.0
aF0.012227614033891764
aF0.048910456135567056
aF0.006113807016945882
aF0.006113807016945882
aF0.006113807016945882
aF0.0
aF0.006113807016945882
aF0.0
aF0.006113807016945882
aF0.018341421050837647
aF0.006113807016945882
aF0.09170710525418822
aF0.012227614033891764
aF0.006113807016945882
aF0.03056903508472941
aF0.012227614033891764
aF0.05502426315251294
aF0.006113807016945882
aF0.006113807016945882
aF0.012227614033891764
aF0.006113807016945882
aF0.006113807016945882
aF0.012227614033891764
aF0.012227614033891764
aF0.012227614033891764
aF0.0
aF0.012227614033891764
aF0.12227614033891764
aF0.006113807016945882
aF0.006113807016945882
aF0.006113807016945882
aF0.006113807016945882
aF0.024455228067783528
aF0.2751213157625647
aF0.07947949122029647
aF0.006113807016945882
aF0.012227614033891764
aF0.006113807016945882
aF0.018341421050837647
aF0.018341421050837647
aF0.006113807016945882
aF0.006113807016945882
aF0.012227614033891764
aF0.012227614033891764
aF0.006113807016945882
aF0.11616233332197176
aF0.006113807016945882
aF0.006113807016945882
aF0.006113807016945882
aF0.012227614033891764
aF0.006113807016945882
aF0.018341421050837647
aF0.012227614033891764
aF0.006113807016945882
aF0.006113807016945882
aF0.018341421050837647
aF0.024455228067783528
aF0.012227614033891764
aF0.012227614033891764
aF0.012227614033891764
aF0.018341421050837647
aF0.024455228067783528
aF0.08559329823724235
aF0.012227614033891764
aF0.0
aF0.012227614033891764
aF0.012227614033891764
aF0.012227614033891764
aF0.006113807016945882
aF0.006113807016945882
aF0.03056903508472941
aF0.012227614033891764
aF0.012227614033891764
aF0.018341421050837647
aF0.012227614033891764
aF0.006113807016945882
aF0.0672518771864047
aF0.018341421050837647
aF0.006113807016945882
aF0.006113807016945882
aF0.012227614033891764
aF0.012227614033891764
aF0.006113807016945882
aF0.012227614033891764
aF0.006113807016945882
aF0.006113807016945882
aF0.012227614033891764
aF0.006113807016945882
aF0.006113807016945882
aF0.006113807016945882
aF0.012227614033891764
aF0.012227614033891764
aF0.012227614033891764
aF0.012227614033891764
aF0.12227614033891764
aF0.006113807016945882
aF0.006113807016945882
aF0.012227614033891764
aF0.024455228067783528
aF0.006113807016945882
aF0.012227614033891764
aF0.03056903508472941
aF0.006113807016945882
aF0.0
aF0.006113807016945882
aF0.012227614033891764
aF0.3729422280336988
aF0.006113807016945882
aF0.024455228067783528
aF0.006113807016945882
aF0.003056903508472941
aF0.006113807016945882
aF0.012227614033891764
aF0.006113807016945882
aF0.006113807016945882
aF0.018341421050837647
aF0.006113807016945882
aF0.012227614033891764
aF0.006113807016945882
aF0.0
aF0.003056903508472941
aF0.018341421050837647
aF0.018341421050837647
aF0.006113807016945882
aF0.0
aF0.012227614033891764
aF0.006113807016945882
aF0.006113807016945882
aF0.006113807016945882
aF0.006113807016945882
aF0.006113807016945882
aF0.0
aF0.042796649118621174
aF0.006113807016945882
aF0.0
aF0.0
aF0.024455228067783528
aF0.012227614033891764
aF0.2995765438303482
aF0.006113807016945882
aF0.0672518771864047
aF0.048910456135567056
aF0.006113807016945882
aF0.0
aF0.006113807016945882
aF0.006113807016945882
aF0.012227614033891764
aF0.006113807016945882
aF0.0
aF0.024455228067783528
aF0.11616233332197176
aF0.006113807016945882
aF0.018341421050837647
aF0.012227614033891764
aF0.006113807016945882
aF0.012227614033891764
aF0.006113807016945882
aF0.0
aF0.006113807016945882
aF0.0
aF0.012227614033891764
aF0.006113807016945882
aF0.0
aF0.006113807016945882
aF0.0
aF0.012227614033891764
aF0.012227614033891764
aF0.006113807016945882
aF0.0
aF0.018341421050837647
aF0.11616233332197176
aF0.006113807016945882
aF0.006113807016945882
aF0.0
aF0.018341421050837647
aF0.08559329823724235
aF0.0
aF0.03056903508472941
aF0.0
aF0.012227614033891764
aF0.012227614033891764
aF0.006113807016945882
aF0.012227614033891764
aF0.0
aF0.018341421050837647
aF0.006113807016945882
aF0.03668284210167529
aF0.006113807016945882
aF0.06113807016945882
aF0.012227614033891764
aF0.012227614033891764
aF0.006113807016945882
aF0.18341421050837645
aF0.006113807016945882
aF0.006113807016945882
aF0.26289370172867293
aF0.012227614033891764
aF0.006113807016945882
aF0.006113807016945882
aF0.006113807016945882
aF0.006113807016945882
aF0.0
aF0.018341421050837647
aF0.012227614033891764
aF0.0
aF0.006113807016945882
aF0.012227614033891764
aF0.012227614033891764
aF0.006113807016945882
aF0.006113807016945882
aF0.018341421050837647
aF0.006113807016945882
aF0.0
aF0.006113807016945882
aF0.006113807016945882
aF0.012227614033891764
aF0.012227614033891764
aF0.012227614033891764
aF0.006113807016945882
aF0.006113807016945882
aF0.012227614033891764
aF0.006113807016945882
aF0.06113807016945882
aF0.03056903508472941
aF0.006113807016945882
aF0.006113807016945882
aF0.024455228067783528
aF0.012227614033891764
aF0.012227614033891764
aF0.006113807016945882
aF0.006113807016945882
aF0.0
aF0.012227614033891764
aF0.012227614033891764
aF0.006113807016945882
aF0.006113807016945882
aF0.024455228067783528
aF0.012227614033891764
aF0.03056903508472941
aF0.006113807016945882
aF0.0
aF0.03056903508472941
aF0.07336568420335059
aF0.012227614033891764
aF0.024455228067783528
aF0.12227614033891764
aF0.012227614033891764
aF0.012227614033891764
aF0.16507278945753884
aF0.012227614033891764
aF0.0
aF0.018341421050837647
aF0.006113807016945882
aF0.006113807016945882
aF0.012227614033891764
aF0.006113807016945882
aF0.0
aF0.08559329823724235
aF0.042796649118621174
aF0.006113807016945882
aF0.0
aF0.03056903508472941
aF0.024455228067783528
aF0.0
aF0.006113807016945882
aF0.03668284210167529
aF0.0
aF0.0
aa(lp2
F0.0
aF0.0
aF0.0
aF0.0
aF0.0
aF0.0
aF0.0
aF0.0
aF0.0
aF0.0
aF0.0
aF0.0
aF0.0
aF0.0
aF0.0
aF0.0
aF0.0
aF0.04048881650894579
aF0.0
aF0.0
aF0.0
aF0.0
aF0.0
aF0.16195526603578317
aF0.0
aF0.0
aF0.0
aF0.04048881650894579
aF0.0
aF0.08097763301789158
aF0.0
aF0.0
aF0.0
aF0.0
aF0.0
aF0.0
aF0.0
aF0.0
aF0.0
aF0.0
aF0.0
aF0.0
aF0.0
aF0.0
aF0.0
aF0.0
aF0.0
aF0.0
aF0.0
aF0.04048881650894579
aF0.0
aF0.0
aF0.0
aF0.0
aF0.0
aF0.0
aF0.0
aF0.0
aF0.0
aF0.0
aF0.04048881650894579
aF0.0
aF0.12146644952683738
aF0.0
aF0.0
aF0.12146644952683738
aF0.0
aF0.0
aF0.0
aF0.0
aF0.0
aF0.0
aF0.06073322476341869
aF0.0
aF0.0
aF0.0
aF0.0
aF0.0
aF0.0
aF0.0
aF0.0
aF0.0
aF0.0
aF0.0
aF0.22268849079920186
aF0.0
aF0.0
aF0.0
aF0.0
aF0.0
aF0.0
aF0.0
aF0.0
aF0.0
aF0.0
aF0.0
aF0.20244408254472895
aF0.0
aF0.0
aF0.0
aF0.04048881650894579
aF0.0
aF0.0
aF0.0
aF0.0
aF0.0
aF0.0
aF0.0
aF0.0
aF0.0
aF0.0
aF0.0
aF0.0
aF0.0
aF0.0
aF0.0
aF0.16195526603578317
aF0.0
aF0.0
aF0.0
aF0.0
aF0.0
aF0.0
aF0.0
aF0.0
aF0.0
aF0.0
aF0.0
aF0.0
aF0.08097763301789158
aF0.0
aF0.0
aF0.0
aF0.0
aF0.0
aF0.0
aF0.0
aF0.0
aF0.0
aF0.0
aF0.0
aF0.0
aF0.0
aF0.0
aF0.0
aF0.0
aF0.04048881650894579
aF0.32391053207156634
aF0.04048881650894579
aF0.0
aF0.0
aF0.0
aF0.0
aF0.0
aF0.0
aF0.12146644952683738
aF0.0
aF0.04048881650894579
aF0.0
aF0.0
aF0.0
aF0.0
aF0.0
aF0.0
aF0.24293289905367477
aF0.0
aF0.0
aF0.04048881650894579
aF0.0
aF0.0
aF0.0
aF0.0
aF0.0
aF0.0
aF0.0
aF0.04048881650894579
aF0.0
aF0.0
aF0.08097763301789158
aF0.0
aF0.0
aF0.0
aF0.0
aF0.0
aF0.0
aF0.0
aF0.0
aF0.0
aF0.0
aF0.0
aF0.0
aF0.0
aF0.0
aF0.0
aF0.0
aF0.04048881650894579
aF0.0
aF0.0
aF0.0
aF0.0
aF0.0
aF0.0
aF0.12146644952683738
aF0.0
aF0.0
aF0.0
aF0.0
aF0.0
aF0.0
aF0.0
aF0.0
aF0.0
aF0.04048881650894579
aF0.0
aF0.0
aF0.0
aF0.0
aF0.0
aF0.0
aF0.0
aF0.0
aF0.0
aF0.0
aF0.0
aF0.0
aF0.04048881650894579
aF0.0
aF0.0
aF0.0
aF0.0
aF0.0
aF0.0
aF0.0
aF0.0
aF0.0
aF0.0
aF0.22268849079920186
aF0.0
aF0.0
aF0.0
aF0.0
aF0.0
aF0.0
aF0.0
aF0.0
aF0.0
aF0.0
aF0.0
aF0.0
aF0.0
aF0.0
aF0.0
aF0.0
aF0.0
aF0.0
aF0.04048881650894579
aF0.0
aF0.0
aF0.0
aF0.0
aF0.0
aF0.0
aF0.0
aF0.0
aF0.0
aF0.0
aF0.0
aF0.04048881650894579
aF0.0
aF0.04048881650894579
aF0.0
aF0.0
aF0.0
aF0.0
aF0.0
aF0.0
aF0.0
aF0.0
aF0.0
aF0.0
aF0.0
aF0.0
aF0.0
aF0.0
aF0.0
aF0.0
aF0.0
aF0.16195526603578317
aF0.0
aF0.0
aF0.0
aF0.0
aF0.0
aF0.0
aF0.0
aF0.0
aF0.0
aF0.0
aF0.0
aF0.0
aF0.0
aF0.0
aF0.0
aF0.0
aF0.0
aF0.0
aF0.0
aF0.0
aF0.0
aF0.0
aF0.0
aF0.0
aF0.0
aF0.0
aF0.0
aF0.0
aF0.0
aF0.0
aF0.0
aF0.0
aF0.0
aF0.0
aF0.0
aF0.04048881650894579
aF0.0
aF0.0
aF0.24293289905367477
aF0.0
aF0.0
aF0.0
aF0.0
aF0.0
aF0.0
aF0.0
aF0.0
aF0.0
aF0.0
aF0.0
aF0.0
aF0.0
aF0.0
aF0.0
aF0.0
aF0.0
aF0.0
aF0.0
aF0.0
aF0.0
aF0.0
aF0.0
aF0.0
aF0.0
aF0.0
aF0.0
aF0.0
aF0.0
aF0.0
aF0.0
aF0.0
aF0.0
aF0.0
aF0.0
aF0.0
aF0.0
aF0.0
aF0.04048881650894579
aF0.0
aF0.0
aF0.0
aF0.0
aF0.0
aF0.0
aF0.04048881650894579
aF0.0
aF0.0
aF0.0
aF0.0
aF0.0
aF0.0
aF0.0
aF0.0
aF0.04048881650894579
aF0.10122204127236448
aF0.0
aF0.0
aF0.0
aF0.16195526603578317
aF0.0
aF0.0
aF0.0
aF0.0
aF0.0
aF0.0
aF0.12146644952683738
aF0.0
aF0.0
aF0.04048881650894579
aF0.12146644952683738
aF0.0
aF0.0
aF0.0
aF0.0
aF0.0
aF0.0
aF0.0
aF0.04048881650894579
aF0.0
aF0.0
aF0.0
aF0.0
aF0.04048881650894579
aF0.0
aF0.0
aF0.0
aF0.0
aF0.0
aF0.0
aF0.0
aF0.0
aF0.04048881650894579
aF0.0
aF0.12146644952683738
aF0.0
aF0.0
aF0.12146644952683738
aF0.0
aF0.12146644952683738
aF0.0
aF0.0
aF0.0
aF0.04048881650894579
aF0.0
aF0.0
aF0.0
aF0.04048881650894579
aF0.24293289905367477
aF0.0
aF0.0
aF0.04048881650894579
aF0.0
aF0.04048881650894579
aF0.0
aF0.0
aF0.0
aF0.0
aF0.08097763301789158
aF0.0
aF0.0
aF0.04048881650894579
aF0.0
aF0.0
aF0.0
aF0.0
aF0.0
aF0.0
aF0.0
aF0.0
aF0.0
aF0.0
aF0.0
aF0.0
aF0.0
aF0.0
aF0.32391053207156634
aF0.0
aF0.0
aF0.12146644952683738
aF0.0
aF0.0
aF0.0
aF0.0
aF0.0
aF0.0
aF0.0
aF0.2834217155626205
aF0.0
aF0.0
aF0.0
aF0.0
aF0.0
aF0.0
aF0.0
aF0.0
aF0.0
aF0.0
aF0.0
aF0.0
aF0.0
aF0.0
aF0.0
aF0.0
aF0.04048881650894579
aF0.0
aF0.04048881650894579
aF0.0
aF0.0
aF0.0
aF0.0
aF0.0
aF0.0
aF0.0
aF0.0
aF0.20244408254472895
aF0.0
aF0.0
aF0.0
aF0.0
aF0.0
aF0.0
aF0.0
aF0.0
aF0.0
aF0.04048881650894579
aF0.0
aF0.0
aF0.0
aF0.0
aF0.0
aF0.04048881650894579
aF0.0
aF0.0
aF0.0
aF0.04048881650894579
aF0.0
aF0.0
aF0.04048881650894579
aF0.0
aF0.0
aF0.04048881650894579
aF0.0
aa(lp3
F0.0
aF0.0
aF0.0
aF0.0
aF0.0
aF0.0
aF0.0
aF0.0
aF0.0
aF0.0
aF0.0
aF0.0
aF0.0
aF0.0
aF0.0
aF0.0
aF0.0
aF0.0
aF0.0
aF0.0
aF0.0
aF0.0
aF0.0
aF0.0
aF0.0
aF0.0
aF0.0
aF0.0
aF0.0
aF0.0
aF0.0
aF0.0
aF0.0
aF0.0
aF0.0
aF0.0
aF0.0
aF0.0
aF0.014139308044851596
aF0.0
aF0.0
aF0.0
aF0.0
aF0.0
aF0.0
aF0.0
aF0.0
aF0.0
aF0.0
aF0.0
aF0.0
aF0.0
aF0.0
aF0.0
aF0.0
aF0.0
aF0.0
aF0.0
aF0.0
aF0.0
aF0.0
aF0.0
aF0.0
aF0.0
aF0.0
aF0.0
aF0.0
aF0.0
aF0.0
aF0.0
aF0.0
aF0.0
aF0.0
aF0.0
aF0.0
aF0.0
aF0.0
aF0.0
aF0.0
aF0.0
aF0.0
aF0.0
aF0.0
aF0.0
aF0.0
aF0.0
aF0.0
aF0.0
aF0.0
aF0.0
aF0.0
aF0.0
aF0.0
aF0.0
aF0.0
aF0.0
aF0.0
aF0.0
aF0.0
aF0.0
aF0.0
aF0.0
aF0.0
aF0.0
aF0.0
aF0.0
aF0.0
aF0.0
aF0.0
aF0.0
aF0.0
aF0.0
aF0.0
aF0.0
aF0.0
aF0.0
aF0.0
aF0.0
aF0.0
aF0.0
aF0.0
aF0.0
aF0.0
aF0.7069654022425799
aF0.0
aF0.0
aF0.0
aF0.0
aF0.0
aF0.0
aF0.0
aF0.0
aF0.0
aF0.0
aF0.0
aF0.0
aF0.0
aF0.0
aF0.0
aF0.0
aF0.0
aF0.0
aF0.0
aF0.0
aF0.0
aF0.0
aF0.0
aF0.0
aF0.0
aF0.0
aF0.0
aF0.0
aF0.0
aF0.0
aF0.0
aF0.0
aF0.0
aF0.0
aF0.0
aF0.0
aF0.0
aF0.0
aF0.0
aF0.0
aF0.0
aF0.0
aF0.0
aF0.0
aF0.0
aF0.0
aF0.0
aF0.0
aF0.0
aF0.0
aF0.0
aF0.0
aF0.0
aF0.0
aF0.0
aF0.0
aF0.0
aF0.0
aF0.0
aF0.0
aF0.0
aF0.0
aF0.0
aF0.0
aF0.0
aF0.0
aF0.0
aF0.0
aF0.0
aF0.0
aF0.0
aF0.0
aF0.0
aF0.0
aF0.0
aF0.0
aF0.0
aF0.0
aF0.0
aF0.0
aF0.0
aF0.0
aF0.0
aF0.0
aF0.0
aF0.0
aF0.0
aF0.0
aF0.0
aF0.0
aF0.0
aF0.0
aF0.0
aF0.0
aF0.0
aF0.0
aF0.0
aF0.0
aF0.0
aF0.0
aF0.0
aF0.0
aF0.0
aF0.0
aF0.0
aF0.0
aF0.0
aF0.0
aF0.0
aF0.0
aF0.0
aF0.0
aF0.0
aF0.0
aF0.0
aF0.0
aF0.0
aF0.0
aF0.0
aF0.0
aF0.0
aF0.0
aF0.0
aF0.0
aF0.0
aF0.0
aF0.0
aF0.0
aF0.0
aF0.0
aF0.0
aF0.0
aF0.0
aF0.0
aF0.0
aF0.0
aF0.0
aF0.7069654022425799
aF0.0
aF0.0
aF0.0
aF0.0
aF0.0
aF0.0
aF0.0
aF0.0
aF0.0
aF0.0
aF0.0
aF0.0
aF0.0
aF0.0
aF0.0
aF0.0
aF0.0
aF0.0
aF0.0
aF0.0
aF0.0
aF0.0
aF0.0
aF0.0
aF0.0
aF0.0
aF0.0
aF0.0
aF0.0
aF0.0
aF0.0
aF0.0
aF0.0
aF0.0
aF0.0
aF0.0
aF0.0
aF0.0
aF0.0
aF0.0
aF0.0
aF0.0
aF0.0
aF0.0
aF0.0
aF0.0
aF0.0
aF0.0
aF0.0
aF0.0
aF0.0
aF0.0
aF0.0
aF0.0
aF0.0
aF0.0
aF0.0
aF0.0
aF0.0
aF0.0
aF0.0
aF0.0
aF0.0
aF0.0
aF0.0
aF0.0
aF0.0
aF0.0
aF0.0
aF0.0
aF0.0
aF0.0
aF0.0
aF0.0
aF0.0
aF0.0
aF0.0
aF0.0
aF0.0
aF0.0
aF0.0
aF0.0
aF0.0
aF0.0
aF0.0
aF0.0
aF0.0
aF0.0
aF0.0
aF0.0
aF0.0
aF0.0
aF0.0
aF0.0
aF0.0
aF0.0
aF0.0
aF0.0
aF0.0
aF0.0
aF0.0
aF0.0
aF0.0
aF0.0
aF0.0
aF0.0
aF0.0
aF0.0
aF0.0
aF0.0
aF0.0
aF0.0
aF0.0
aF0.0
aF0.0
aF0.0
aF0.0
aF0.0
aF0.0
aF0.0
aF0.0
aF0.0
aF0.0
aF0.0
aF0.0
aF0.0
aF0.0
aF0.0
aF0.0
aF0.0
aF0.0
aF0.0
aF0.0
aF0.0
aF0.0
aF0.0
aF0.0
aF0.0
aF0.0
aF0.0
aF0.0
aF0.0
aF0.0
aF0.0
aF0.0
aF0.0
aF0.0
aF0.0
aF0.0
aF0.0
aF0.0
aF0.0
aF0.0
aF0.0
aF0.0
aF0.0
aF0.0
aF0.0
aF0.0
aF0.0
aF0.0
aF0.0
aF0.0
aF0.0
aF0.0
aF0.0
aF0.0
aF0.0
aF0.0
aF0.0
aF0.0
aF0.0
aF0.0
aF0.0
aF0.0
aF0.0
aF0.0
aF0.0
aF0.0
aF0.0
aF0.0
aF0.0
aF0.0
aF0.0
aF0.0
aF0.0
aF0.0
aF0.0
aF0.0
aF0.0
aF0.0
aF0.0
aF0.0
aF0.0
aF0.0
aF0.0
aF0.0
aF0.0
aF0.0
aF0.0
aF0.0
aF0.0
aF0.0
aF0.0
aF0.0
aF0.0
aF0.0
aF0.0
aF0.0
aF0.0
aF0.0
aF0.0
aF0.0
aF0.0
aF0.0
aF0.0
aF0.0
aF0.0
aF0.0
aF0.0
aF0.0
aF0.0
aF0.0
aF0.0
aF0.0
aF0.0
aF0.0
aF0.0
aF0.0
aF0.0
aF0.0
aF0.0
aF0.0
aF0.0
aF0.0
aF0.0
aF0.0
aF0.0
aF0.0
aF0.0
aF0.0
aF0.0
aF0.0
aF0.0
aF0.0
aF0.0
aF0.0
aF0.0
aF0.0
aF0.0
aF0.0
aF0.0
aF0.0
aF0.0
aF0.0
aF0.0
aF0.0
aF0.0
aF0.0
aF0.0
aF0.0
aF0.0
aF0.0
aF0.0
aF0.0
aF0.0
aF0.0
aF0.014139308044851596
aa.