(dp0
S'partial'
p1
(dp2
S'example.pdf'
p3
(lp4
I329
aI451
assS'results'
p5
(dp6
g3
(lp7
I809
aI938
assS'leads'
p8
(dp9
g3
(lp10
I1118
aI1547
assS'preface'
p11
(dp12
g3
(lp13
I792
aI880
assS'go'
p14
(dp15
g3
(lp16
I2143
assS'chair'
p17
(dp18
g3
(lp19
I372
assS'fellowship'
p20
(dp21
g3
(lp22
I713
assS'elizabeth'
p23
(dp24
g3
(lp25
I244
aI324
aI443
assS'father'
p26
(dp27
g3
(lp28
I619
assS'contained'
p29
(dp30
g3
(lp31
I2105
assS'0'
p32
(dp33
g3
(lp34
I1301
aI1382
aI1391
assS'finally'
p35
(dp36
g3
(lp37
I725
aI2229
assS'critical'
p38
(dp39
g3
(lp40
I1134
assS'voted'
p41
(dp42
g3
(lp43
I89
assS'celia'
p44
(dp45
g3
(lp46
I386
aI692
assS'include'
p47
(dp48
g3
(lp49
I22
aI38
aI130
aI146
aI766
aI865
aI1335
assS'adviser'
p50
(dp51
g3
(lp52
I83
aI191
aI198
aI489
aI663
aI1859
assS'string'
p53
(dp54
S'a.txt'
p55
(lp56
I218
assS'very'
p57
(dp58
g3
(lp59
I539
assS'20xx'
p60
(dp61
g3
(lp62
I242
aI359
aI481
assS'every'
p63
(dp64
g3
(lp65
I560
aI1141
assS'presented'
p66
(dp67
g3
(lp68
I1814
assS'list'
p69
(dp70
g3
(lp71
I104
aI217
aI275
aI396
aI498
aI587
aI625
aI749
aI781
aI833
aI970
aI1163
aI1217
aI1318
aI1404
aI1590
aI1667
aI1757
aI1880
aI2108
aI2135
aI2292
assS'item'
p72
(dp73
g55
(lp74
I10
aI26
aI42
aI58
assS'offering'
p75
(dp76
g3
(lp77
I742
assS'heading'
p78
(dp79
g3
(lp80
I609
aI866
aI987
aI2061
aI2088
assS'edu'
p81
(dp82
g3
(lp83
I11
aI116
aI229
aI287
aI408
aI510
aI599
aI637
aI761
aI845
aI982
aI1175
aI1229
aI1330
aI1416
aI1602
aI1679
aI1769
aI1892
aI2304
assS'sign'
p84
(dp85
g55
(lp86
I168
assS'titles'
p87
(dp88
g3
(lp89
I2037
aI2160
assS'video'
p90
(dp91
g55
(lp92
I199
aI253
assS'pass'
p93
(dp94
g3
(lp95
I91
assS'dissertation'
p96
(dp97
g3
(lp98
I13
aI16
aI123
aI326
aI566
aI711
aI2020
assS'what'
p99
(dp100
g3
(lp101
I888
aI1002
assS'errors'
p102
(dp103
g3
(lp104
I2000
aI2033
assS'sub'
p105
(dp106
g3
(lp107
I2175
assS'unripe'
p108
(dp109
g3
(lp110
I1037
aI1466
assS'section'
p111
(dp112
g3
(lp113
I200
aI204
aI1629
aI1661
aI1708
aI1733
aI1751
aI2039
assS'caffeine'
p114
(dp115
g3
(lp116
I525
aI915
aI1054
aI1483
assS'aayush'
p117
(dp118
S'b.txt'
p119
(lp120
I1
aI3
aI5
aI7
aI9
aI11
aI13
aI15
aI17
aI19
aI21
aI23
aI25
aI27
aI29
aI31
aI33
assS'consistently'
p121
(dp122
g3
(lp123
I2163
aI2171
aI2180
assS'numeral'
p124
(dp125
g3
(lp126
I582
aI1158
assS'method'
p127
(dp128
g3
(lp129
I1610
aI1687
assS'full'
p130
(dp131
g3
(lp132
I103
aI216
aI274
aI395
aI497
aI586
aI624
aI748
aI832
aI969
aI1162
aI1216
aI1317
aI1403
aI1589
aI1666
aI1756
aI1879
aI2291
assS'degree'
p133
(dp134
g3
(lp135
I24
aI132
aI240
aI336
aI458
aI2006
aI2015
assS'here'
p136
(dp137
g3
(lp138
I783
aI871
assS'100'
p139
(dp140
g3
(lp141
I818
aI955
assS'appears'
p142
(dp143
g3
(lp144
I249
assS'104'
p145
(dp146
g3
(lp147
I820
aI957
assS'dry'
p148
(dp149
g3
(lp150
I1097
aI1115
aI1526
aI1544
assS'parameters'
p151
(dp152
g55
(lp153
I70
assS'items'
p154
(dp155
g3
(lp156
I2104
assS'study'
p157
(dp158
g3
(lp159
I523
aI548
assS'title'
p160
(dp161
g3
(lp162
I28
aI31
aI34
aI136
aI139
aI142
aI251
aI293
aI424
aI1962
aI1986
aI1994
aI2004
aI2009
aI2013
aI2059
aI2086
assS'35'
p163
(dp164
g3
(lp165
I918
assS'credit'
p166
(dp167
g3
(lp168
I1422
aI1574
assS'survey'
p169
(dp170
g3
(lp171
I828
aI965
aI1801
assS'studies'
p172
(dp173
g3
(lp174
I1562
assS'named'
p175
(dp176
g3
(lp177
I1825
assS'love'
p178
(dp179
g3
(lp180
I745
assS'app'
p181
(dp182
g3
(lp183
I72
aI180
assS'boolean'
p184
(dp185
g55
(lp186
I202
assS'use'
p187
(dp188
g3
(lp189
I46
aI154
aI1903
aI2262
aI2271
assS'takes'
p190
(dp191
g55
(lp192
I68
aI95
aI116
assS'consumption'
p193
(dp194
g3
(lp195
I314
aI433
aI526
aI906
aI1241
aI1431
aI1490
assS'tda'
p196
(dp197
g3
(lp198
I18
aI40
aI125
aI148
aI2022
assS'contains'
p199
(dp200
g55
(lp201
I221
aI236
aI248
assS'two'
p202
(dp203
g3
(lp204
I583
aI1062
aI1094
aI1491
aI1523
assS'next'
p205
(dp206
g3
(lp207
I2076
assS'review1'
p208
(dp209
g3
(lp210
I1427
assS'soil'
p211
(dp212
g3
(lp213
I1017
aI1446
assS'preview'
p214
(dp215
g3
(lp216
I71
aI179
assS'more'
p217
(dp218
g3
(lp219
I1107
aI1536
assS'it'
p220
(dp221
g3
(lp222
I248
aI1110
aI1539
asg55
(lp223
I107
aI107
aI129
assS'appendix'
p224
(dp225
g3
(lp226
I821
aI958
aI1719
aI1775
aI1794
aI1829
aI1840
aI1848
aI2153
assS'93'
p227
(dp228
g3
(lp229
I951
assS'92'
p230
(dp231
g3
(lp232
I947
assS'iii'
p233
(dp234
g3
(lp235
I622
assS'supplemental'
p236
(dp237
g3
(lp238
I1779
aI1823
aI1839
aI1847
assS'must'
p239
(dp240
g3
(lp241
I25
aI29
aI133
aI137
aI205
aI572
aI1155
aI1831
aI1850
assS'me'
p242
(dp243
g3
(lp244
I709
aI715
aI740
assS'ii'
p245
(dp246
g3
(lp247
I584
assS'pagination'
p248
(dp249
g3
(lp250
I1934
assS'word'
p251
(dp252
g3
(lp253
I570
assS'f'
p254
(dp255
g3
(lp256
I1203
assS'this'
p257
(dp258
g3
(lp259
I255
aI519
aI646
aI722
aI736
aI1088
aI1517
aI1816
aI2264
aI2273
asg55
(lp260
I2
aI2
aI18
aI34
aI50
aI66
aI93
aI114
aI135
aI156
aI178
assS'science'
p261
(dp262
g3
(lp263
I343
aI462
aI465
assS'work'
p264
(dp265
g3
(lp266
I1929
assS'v'
p267
(dp268
g3
(lp269
I830
aI967
assS'my'
p270
(dp271
g3
(lp272
I662
aI669
aI683
aI728
assS'fulfillment'
p273
(dp274
g3
(lp275
I330
aI452
assS'figure'
p276
(dp277
g3
(lp278
I1182
aI1194
aI1338
aI1608
aI1618
aI1650
aI1685
aI1696
aI1725
aI1739
aI2213
assS'process'
p279
(dp280
g3
(lp281
I738
assS'intake'
p282
(dp283
g3
(lp284
I1279
aI1284
aI1373
aI1378
assS'caffeinated'
p285
(dp286
g3
(lp287
I1280
aI1374
assS'sample'
p288
(dp289
g3
(lp290
I0
aI14
aI121
aI234
aI292
aI423
aI515
aI604
aI642
aI784
aI872
aI994
aI1180
aI1234
aI1421
aI1607
aI1684
aI1774
assS'indicates'
p291
(dp292
g3
(lp293
I1715
aI1724
assS'tag'
p294
(dp295
g55
(lp296
I154
aI160
aI176
aI182
aI215
assS'numbers'
p297
(dp298
g3
(lp299
I988
aI1188
aI1991
aI2252
assS'sense'
p300
(dp301
g3
(lp302
I676
assS'guarantee'
p303
(dp304
g3
(lp305
I2277
assS'information'
p306
(dp307
g55
(lp308
I223
assS'requirements'
p309
(dp310
g3
(lp311
I109
aI120
aI222
aI233
aI280
aI291
aI333
aI401
aI412
aI455
aI503
aI514
aI592
aI603
aI630
aI641
aI754
aI765
aI838
aI849
aI975
aI986
aI1168
aI1179
aI1222
aI1233
aI1323
aI1334
aI1409
aI1420
aI1595
aI1606
aI1672
aI1683
aI1762
aI1773
aI1885
aI1896
aI2297
aI2308
assS'turn'
p312
(dp313
g3
(lp314
I2183
assS'verify'
p315
(dp316
g3
(lp317
I2001
aI2156
aI2195
assS'discussion'
p318
(dp319
g3
(lp320
I813
aI942
assS'six'
p321
(dp322
g3
(lp323
I551
assS'1'
p324
(dp325
g3
(lp326
I795
aI797
aI883
aI885
aI886
aI887
aI891
aI892
aI904
aI924
aI945
aI998
aI1000
aI1001
aI1055
aI1056
aI1057
aI1123
aI1124
aI1125
aI1126
aI1160
aI1214
aI1239
aI1297
aI1298
aI1299
aI1345
aI1369
aI1383
aI1385
aI1389
aI1429
aI1485
aI1486
aI1611
aI1614
aI1619
aI1644
aI1664
aI1692
aI1697
aI1698
aI1741
aI1754
aI1876
aI1974
assS'how'
p327
(dp328
g3
(lp329
I1149
assS'methodology'
p330
(dp331
g3
(lp332
I805
aI921
aI929
assS'champaign'
p333
(dp334
g3
(lp335
I358
aI480
assS'beans'
p336
(dp337
g3
(lp338
I1061
aI1065
aI1084
aI1129
aI1144
aI1494
aI1513
assS'product'
p339
(dp340
g3
(lp341
I1122
aI1551
assS'145'
p342
(dp343
g3
(lp344
I1570
assS'intended'
p345
(dp346
g3
(lp347
I66
aI174
assS'may'
p348
(dp349
g3
(lp350
I62
aI170
aI1189
aI1818
aI1927
assS'after'
p351
(dp352
g3
(lp353
I774
aI1078
aI1507
aI1722
aI1904
assS'hazard'
p354
(dp355
g55
(lp356
I112
aI148
aI172
aI208
assS'faculty'
p357
(dp358
g3
(lp359
I211
assS'end'
p360
(dp361
g3
(lp362
I1943
aI2193
assS'spelling'
p363
(dp364
g3
(lp365
I1999
aI2032
aI2081
assS'data'
p366
(dp367
g3
(lp368
I1810
assS'short'
p369
(dp370
g3
(lp371
I788
assS'prefers'
p372
(dp373
g3
(lp374
I1019
aI1448
assS'harshit'
p375
(dp376
g119
(lp377
I35
aI37
aI39
aI41
aI43
aI45
aI47
aI49
aI51
aI53
aI55
aI57
aI59
aI61
aI63
aI65
aI67
aI69
aI71
aI73
aI75
aI77
aI79
aI81
aI83
aI85
aI87
aI89
aI91
aI93
aI95
aI97
aI99
aI101
aI103
aI105
aI107
aI109
aI111
aI113
aI115
aI117
aI119
aI121
aI123
aI125
aI127
aI129
aI131
aI133
aI135
aI137
aI139
aI141
aI143
aI145
aI147
aI149
aI151
aI153
aI155
aI157
aI159
aI161
aI163
aI165
aI167
aI169
aI171
aI173
aI175
aI177
aI179
aI181
aI183
aI185
aI187
aI189
aI191
aI193
aI195
aI197
aI199
aI201
aI203
aI205
aI207
aI209
aI211
aI213
aI215
aI217
aI219
aI221
aI223
aI225
aI227
aI229
aI231
aI233
aI235
aI237
aI239
aI241
aI243
aI245
aI247
aI249
aI251
aI253
aI255
aI257
aI259
aI261
aI263
aI265
aI267
aI269
aI271
aI273
aI275
aI277
aI279
aI281
aI283
aI285
aI287
aI289
aI291
aI293
aI295
aI297
aI299
aI301
aI303
aI305
aI307
aI309
aI311
aI313
aI315
aI317
aI319
aI321
aI323
aI325
aI327
aI329
aI331
aI333
aI335
aI337
aI339
aI341
aI343
aI345
aI347
aI349
aI351
aI353
aI355
aI357
aI359
aI361
aI363
aI365
aI367
aI369
aI371
aI373
aI375
aI377
aI379
aI381
aI383
aI385
aI387
aI389
aI391
aI393
aI395
aI397
aI399
aI401
aI403
aI405
aI407
aI409
aI411
aI413
aI415
aI417
aI419
aI421
aI423
aI425
aI427
aI429
aI431
aI433
aI435
aI437
aI439
aI441
aI443
aI445
aI447
aI449
aI451
aI453
aI455
aI457
aI459
aI461
aI463
aI465
aI467
aI469
aI471
aI473
aI475
aI477
aI479
aI481
aI483
aI485
aI487
aI489
aI491
aI493
aI495
aI497
aI499
aI501
aI503
aI505
aI507
aI509
aI511
aI513
aI515
aI517
aI519
aI521
aI523
aI525
aI527
aI529
aI531
aI533
aI535
aI537
aI539
aI541
aI543
aI545
aI547
aI549
aI551
aI553
aI555
aI557
aI559
aI561
aI563
aI565
aI567
aI569
aI571
aI573
aI575
aI577
aI579
aI581
aI583
aI585
aI587
aI589
aI591
aI593
aI595
aI597
aI599
aI601
aI603
aI605
aI607
aI609
aI611
aI613
aI615
aI617
aI619
aI621
aI623
aI625
aI627
aI629
aI631
aI633
aI635
aI637
aI639
aI641
aI643
aI645
aI647
aI649
aI651
aI653
aI655
aI657
aI659
aI661
aI663
aI665
aI667
aI669
aI671
aI673
aI675
aI677
aI679
aI681
aI683
aI685
aI687
aI689
aI691
aI693
aI695
aI697
aI699
aI701
aI703
aI705
aI707
aI709
aI711
aI713
aI715
aI717
aI719
aI721
aI723
aI725
aI727
aI729
aI731
aI733
aI735
aI737
aI739
aI741
aI743
aI745
aI747
aI749
aI751
aI753
aI755
aI757
aI759
aI761
aI763
aI765
aI767
aI769
aI771
aI773
aI775
aI777
aI779
aI781
aI783
aI785
aI787
aI789
aI791
aI793
aI795
aI797
aI799
aI801
aI803
aI805
aI807
aI809
aI811
aI813
aI815
aI817
aI819
aI821
aI823
aI825
aI827
aI829
aI831
aI833
aI835
aI837
aI839
aI841
aI843
aI845
aI847
aI849
aI851
aI853
aI855
aI857
aI859
aI861
aI863
aI865
aI867
aI869
aI871
aI873
aI875
aI877
aI879
aI881
aI883
aI885
aI887
aI889
aI891
aI893
aI895
aI897
aI899
aI901
aI903
aI905
aI907
aI909
aI911
aI913
aI915
aI917
aI919
aI921
aI923
aI925
aI927
aI929
aI931
aI933
aI935
aI937
aI939
aI941
aI943
aI945
aI947
aI949
aI951
aI953
aI955
aI957
aI959
aI961
aI963
aI965
aI967
aI969
aI971
aI973
aI975
aI977
aI979
aI981
aI983
aI985
aI987
aI989
aI991
aI993
aI995
aI997
aI999
aI1001
aI1003
aI1005
aI1007
aI1009
aI1011
aI1013
aI1015
aI1017
aI1019
aI1021
aI1023
aI1025
aI1027
aI1029
aI1031
aI1033
aI1035
aI1037
aI1039
aI1041
aI1043
aI1045
aI1047
aI1049
aI1051
aI1053
aI1055
aI1057
aI1059
aI1061
aI1063
aI1065
aI1067
aI1069
aI1071
aI1073
aI1075
aI1077
aI1079
aI1081
aI1083
aI1085
aI1087
aI1089
aI1091
aI1093
aI1095
aI1097
aI1099
aI1101
aI1103
aI1105
aI1107
aI1109
aI1111
aI1113
aI1115
aI1117
aI1119
aI1121
aI1123
aI1125
aI1127
aI1129
aI1131
aI1133
aI1135
aI1137
aI1139
aI1141
aI1143
aI1145
aI1147
aI1149
aI1151
aI1153
aI1155
aI1157
aI1159
aI1161
aI1163
aI1165
aI1167
aI1169
aI1171
aI1173
aI1175
aI1177
aI1179
aI1181
aI1183
aI1185
aI1187
aI1189
aI1191
aI1193
aI1195
aI1197
aI1199
aI1201
aI1203
aI1205
aI1207
aI1209
aI1211
aI1213
aI1215
aI1217
aI1219
aI1221
aI1223
aI1225
aI1227
aI1229
aI1231
aI1233
aI1235
aI1237
aI1239
aI1241
aI1243
aI1245
aI1247
aI1249
aI1251
aI1253
aI1255
aI1257
aI1259
aI1261
aI1263
aI1265
aI1267
aI1269
aI1271
aI1273
aI1275
aI1277
aI1279
aI1281
aI1283
aI1285
aI1287
aI1289
aI1291
aI1293
aI1295
aI1297
aI1299
aI1301
aI1303
aI1305
aI1307
aI1309
aI1311
aI1313
aI1315
aI1317
aI1319
aI1321
aI1323
aI1325
aI1327
aI1329
aI1331
aI1333
aI1335
aI1337
aI1339
aI1341
aI1343
aI1345
aI1347
aI1349
aI1351
aI1353
aI1355
aI1357
aI1359
aI1361
aI1363
aI1365
aI1367
aI1369
aI1371
aI1373
aI1375
aI1377
aI1379
aI1381
aI1383
aI1385
aI1387
aI1389
aI1391
aI1393
aI1395
aI1397
aI1399
aI1401
aI1403
aI1405
aI1407
aI1409
aI1411
aI1413
aI1415
aI1417
aI1419
aI1421
aI1423
aI1425
aI1427
aI1429
aI1431
aI1433
aI1435
aI1437
aI1439
aI1441
aI1443
aI1445
aI1447
aI1449
aI1451
aI1453
aI1455
aI1457
aI1459
aI1461
aI1463
aI1465
aI1467
aI1469
aI1471
aI1473
aI1475
aI1477
aI1479
aI1481
aI1483
aI1485
aI1487
aI1489
aI1491
aI1493
aI1495
aI1497
aI1499
aI1501
aI1503
aI1505
aI1507
aI1509
aI1511
aI1513
aI1515
aI1517
aI1519
aI1521
aI1523
aI1525
aI1527
aI1529
aI1531
aI1533
aI1535
aI1537
aI1539
aI1541
aI1543
aI1545
aI1547
aI1549
aI1551
aI1553
aI1555
aI1557
aI1559
aI1561
aI1563
aI1565
aI1567
aI1569
aI1571
aI1573
aI1575
aI1577
aI1579
aI1581
aI1583
aI1585
aI1587
aI1589
aI1591
aI1593
aI1595
aI1597
aI1599
aI1601
aI1603
aI1605
aI1607
aI1609
aI1611
aI1613
aI1615
aI1617
aI1619
aI1621
aI1623
aI1625
aI1627
aI1629
aI1631
aI1633
aI1635
aI1637
aI1639
aI1641
aI1643
aI1645
aI1647
aI1649
aI1651
aI1653
aI1655
aI1657
aI1659
aI1661
aI1663
aI1665
aI1667
aI1669
aI1671
aI1673
aI1675
aI1677
aI1679
aI1681
aI1683
aI1685
aI1687
aI1689
aI1691
aI1693
aI1695
aI1697
aI1699
aI1701
aI1703
aI1705
aI1707
aI1709
aI1711
aI1713
aI1715
aI1717
aI1719
aI1721
aI1723
aI1725
aI1727
aI1729
aI1731
aI1733
assS'green'
p378
(dp379
g3
(lp380
I375
aI687
assS'make'
p381
(dp382
g3
(lp383
I674
aI2241
assS'office'
p384
(dp385
g3
(lp386
I2289
assS'hierarchy'
p387
(dp388
g3
(lp389
I1653
aI1743
assS'tropics'
p390
(dp391
g3
(lp392
I1024
aI1453
assS'over'
p393
(dp394
g55
(lp395
I183
aI227
assS'strongarm'
p396
(dp397
g3
(lp398
I371
aI492
aI666
assS'committee'
p399
(dp400
g3
(lp401
I86
aI368
aI684
aI1862
assS'copyright'
p402
(dp403
g3
(lp404
I235
aI1980
assS'before'
p405
(dp406
g3
(lp407
I1242
aI1246
aI1348
aI1713
assS'24'
p408
(dp409
g3
(lp410
I1249
aI1401
assS'25'
p411
(dp412
g3
(lp413
I802
aI902
aI909
aI1572
assS'group'
p414
(dp415
g3
(lp416
I549
assS'21'
p417
(dp418
g3
(lp419
I1255
aI1568
assS'22'
p420
(dp421
g3
(lp422
I897
aI1253
assS'23'
p423
(dp424
g3
(lp425
I1251
aI1315
assS'degrees'
p426
(dp427
g3
(lp428
I546
assS'decaffeinated'
p429
(dp430
g3
(lp431
I1285
aI1379
assS'2015'
p432
(dp433
g3
(lp434
I5
assS'weeks'
p435
(dp436
g3
(lp437
I1250
aI1252
aI1254
aI1256
aI1258
aI1260
aI1262
aI1264
aI1266
aI1268
aI1270
aI1272
aI1274
aI1276
aI1352
aI1354
aI1356
aI1358
aI1360
aI1362
aI1364
aI1366
aI1368
assS'main'
p438
(dp439
g3
(lp440
I856
aI1153
aI1868
aI1970
aI2166
assS'2010'
p441
(dp442
g3
(lp443
I1558
assS'them'
p444
(dp445
g55
(lp446
I78
assS'food'
p447
(dp448
g3
(lp449
I342
aI464
asg55
(lp450
I9
aI9
aI25
aI41
aI57
aI64
aI85
aI90
aI100
aI111
aI121
aI143
aI163
aI207
aI216
aI230
assS'matcher'
p451
(dp452
g55
(lp453
I134
assS'material'
p454
(dp455
g3
(lp456
I1579
aI2245
assS'awarding'
p457
(dp458
g3
(lp459
I708
assS'finish'
p460
(dp461
g3
(lp462
I320
aI439
assS'effects'
p463
(dp464
g3
(lp465
I913
aI1058
aI1487
assS'they'
p466
(dp467
g3
(lp468
I1786
assS'front'
p469
(dp470
g3
(lp471
I768
assS'name'
p472
(dp473
g3
(lp474
I246
asg55
(lp475
I82
aI82
aI97
aI118
aI164
aI217
assS'capricorn'
p476
(dp477
g3
(lp478
I1028
aI1457
assS'augumenter'
p479
(dp480
g55
(lp481
I177
assS'university'
p482
(dp483
g3
(lp484
I353
aI390
aI475
aI532
aI702
assS'level'
p485
(dp486
g3
(lp487
I2167
aI2176
assS'l'
p488
(dp489
g3
(lp490
I382
aI689
aI1209
assS'each'
p491
(dp492
g3
(lp493
I1838
aI2058
aI2134
assS'found'
p494
(dp495
g3
(lp496
I32
aI140
aI1067
aI1496
aI1820
aI2053
aI2098
aI2117
aI2139
assS'barerra'
p497
(dp498
g3
(lp499
I387
aI693
assS'identifier'
p500
(dp501
g55
(lp502
I1
aI17
aI33
aI49
aI65
aI194
assS'adobe'
p503
(dp504
g3
(lp505
I48
aI156
assS'revised'
p506
(dp507
g3
(lp508
I3
assS'related'
p509
(dp510
g55
(lp511
I127
assS'literature'
p512
(dp513
g3
(lp514
I800
aI900
aI1426
assS'year'
p515
(dp516
g3
(lp517
I238
assS'margins'
p518
(dp519
g3
(lp520
I2228
aI2258
assS'revisions'
p521
(dp522
g3
(lp523
I671
aI1906
assS'shown'
p524
(dp525
g3
(lp526
I870
assS'urbana'
p527
(dp528
g3
(lp529
I357
aI363
aI479
aI485
assS'research'
p530
(dp531
g3
(lp532
I82
aI378
assS'content'
p533
(dp534
g55
(lp535
I105
assS're'
p536
(dp537
g3
(lp538
I1640
aI1872
assS'participants'
p539
(dp540
g3
(lp541
I825
aI925
aI962
aI1798
assS'health'
p542
(dp543
g3
(lp544
I917
asg55
(lp545
I125
aI125
aI139
aI238
assS'7'
p546
(dp547
g3
(lp548
I360
aI482
aI1310
aI1312
aI1313
aI1357
aI1392
aI1400
assS'reader'
p549
(dp550
g3
(lp551
I49
aI157
assS'correct'
p552
(dp553
g3
(lp554
I27
aI135
aI2075
assS'philosophy'
p555
(dp556
g3
(lp557
I340
assS'associate'
p558
(dp559
g3
(lp560
I384
assS'favored'
p561
(dp562
g3
(lp563
I1051
aI1480
assS'members'
p564
(dp565
g3
(lp566
I87
aI685
assS'beginning'
p567
(dp568
g3
(lp569
I1941
aI2191
assS'benefits'
p570
(dp571
g3
(lp572
I946
assS'g'
p573
(dp574
g3
(lp575
I381
aI688
aI778
aI1201
aI2151
assS'bears'
p576
(dp577
g3
(lp578
I1032
aI1461
assS'fruit'
p579
(dp580
g3
(lp581
I1035
aI1038
aI1070
aI1087
aI1464
aI1467
aI1499
aI1516
assS'signature'
p582
(dp583
g3
(lp584
I195
assS'corrections'
p585
(dp586
g3
(lp587
I1908
assS'first'
p588
(dp589
g3
(lp590
I261
aI1047
aI1076
aI1150
aI1476
aI1505
aI1584
aI1623
aI1655
aI1702
aI1745
aI1967
aI2062
assS'features'
p591
(dp592
g3
(lp593
I1926
assS'nutritional'
p594
(dp595
g55
(lp596
I104
assS'number'
p597
(dp598
g3
(lp599
I73
aI181
aI1339
aI1712
aI1717
aI1721
aI1726
aI1731
aI2067
assS'one'
p600
(dp601
g3
(lp602
I194
aI1092
aI1159
aI1521
aI1944
aI2237
assS'proofreading'
p603
(dp604
g3
(lp605
I1898
aI1924
assS'done'
p606
(dp607
g3
(lp608
I1090
aI1519
assS'cups'
p609
(dp610
g3
(lp611
I1281
aI1286
aI1375
aI1380
assS'open'
p612
(dp613
g3
(lp614
I51
aI159
assS'size'
p615
(dp616
g55
(lp617
I16
aI22
aI73
assS'introduction'
p618
(dp619
g3
(lp620
I796
aI884
aI999
assS'top'
p621
(dp622
g3
(lp623
I299
aI302
aI415
aI429
assS'least'
p624
(dp625
g3
(lp626
I193
assS'their'
p627
(dp628
g3
(lp629
I544
assS'2'
p630
(dp631
g3
(lp632
I305
aI418
aI799
aI893
aI899
aI903
aI910
aI911
aI928
aI949
aI1183
aI1184
aI1213
aI1288
aI1293
aI1294
aI1296
aI1300
aI1302
aI1367
aI1384
aI1386
aI1388
aI1390
aI1425
aI1428
aI1484
aI1569
aI1632
aI1646
aI1651
aI1688
aI1711
aI1735
aI1740
assS'master'
p633
(dp634
g3
(lp635
I127
aI186
aI426
aI460
aI561
assS'listed'
p636
(dp637
g3
(lp638
I2045
aI2068
aI2089
assS'hundred'
p639
(dp640
g3
(lp641
I552
assS'final'
p642
(dp643
g3
(lp644
I96
aI540
assS'gives'
p645
(dp646
g55
(lp647
I150
assS'nutrition'
p648
(dp649
g3
(lp650
I346
aI468
assS'checklist'
p651
(dp652
g3
(lp653
I1899
assS'completed'
p654
(dp655
g3
(lp656
I1915
assS'exactly'
p657
(dp658
g3
(lp659
I2095
assS'part'
p660
(dp661
g3
(lp662
I1843
assS'flowers'
p663
(dp664
g3
(lp665
I1033
aI1462
assS'11'
p666
(dp667
g3
(lp668
I1275
assS'distance'
p669
(dp670
g3
(lp671
I297
aI413
assS'13'
p672
(dp673
g3
(lp674
I1271
assS'b'
p675
(dp676
g3
(lp677
I1210
aI1791
assS'15'
p678
(dp679
g3
(lp680
I1267
assS'14'
p681
(dp682
g3
(lp683
I1269
assS'showed'
p684
(dp685
g55
(lp686
I226
assS'16'
p687
(dp688
g3
(lp689
I1265
assS'19'
p690
(dp691
g3
(lp692
I1259
assS'18'
p693
(dp694
g3
(lp695
I1261
assS'require'
p696
(dp697
g3
(lp698
I855
assS'tree'
p699
(dp700
g3
(lp701
I1011
aI1031
aI1074
aI1440
aI1460
aI1503
assS'submitted'
p702
(dp703
g3
(lp704
I327
aI449
assS'project'
p705
(dp706
g3
(lp707
I647
aI723
assS'matter'
p708
(dp709
g3
(lp710
I769
assS'r'
p711
(dp712
g3
(lp713
I1199
assS'proofread'
p714
(dp715
g3
(lp716
I1992
aI2024
assS'function'
p717
(dp718
g3
(lp719
I64
aI172
asg55
(lp720
I3
aI3
aI19
aI35
aI51
aI67
aI94
aI115
aI136
aI157
aI179
assS'footnote'
p721
(dp722
g3
(lp723
I1582
assS'turned'
p724
(dp725
g3
(lp726
I2269
assS'headings'
p727
(dp728
g3
(lp729
I857
aI1185
aI2040
aI2138
aI2168
aI2177
assS'have'
p730
(dp731
g3
(lp732
I650
aI1913
aI2211
assS'any'
p733
(dp734
g3
(lp735
I1016
aI1445
aI2255
assS'contents'
p736
(dp737
g3
(lp738
I776
aI787
aI791
aI859
aI875
aI879
aI2028
aI2050
aI2073
aI2094
aI2130
assS'form'
p739
(dp740
g3
(lp741
I19
aI56
aI60
aI126
aI164
aI168
aI2023
aI2265
aI2274
assS'also'
p742
(dp743
g3
(lp744
I680
aI1851
assS'recommended'
p745
(dp746
g3
(lp747
I59
aI167
assS'foreman'
p748
(dp749
g3
(lp750
I383
aI690
assS'begin'
p751
(dp752
g3
(lp753
I577
assS'sure'
p754
(dp755
g3
(lp756
I2242
assS'multiple'
p757
(dp758
g3
(lp759
I1235
aI1782
assS'who'
p760
(dp761
g3
(lp762
I88
aI535
aI667
aI694
aI734
assS'chart'
p763
(dp764
g3
(lp765
I1621
aI1700
assS'most'
p766
(dp767
g3
(lp768
I1133
assS'letter'
p769
(dp770
g3
(lp771
I1720
assS'pages'
p772
(dp773
g3
(lp774
I2
aI1343
aI1937
aI1952
aI1958
aI1976
aI2186
aI2206
aI2233
assS'icon'
p775
(dp776
g55
(lp777
I220
assS'professor'
p778
(dp779
g3
(lp780
I369
aI373
aI380
aI385
aI490
assS'gather'
p781
(dp782
g3
(lp783
I1806
assS'voting'
p784
(dp785
g3
(lp786
I85
assS'typically'
p787
(dp788
g3
(lp789
I611
assS'wording'
p790
(dp791
g3
(lp792
I2080
assS'akhil'
p793
(dp794
g119
(lp795
I34
aI36
aI38
aI40
aI42
aI44
aI46
aI48
aI50
aI52
aI54
aI56
aI58
aI60
aI62
aI64
aI66
aI68
aI70
aI72
aI74
aI76
aI78
aI80
aI82
aI84
aI86
aI88
aI90
aI92
aI94
aI96
aI98
aI100
aI102
aI104
aI106
aI108
aI110
aI112
aI114
aI116
aI118
aI120
aI122
aI124
aI126
aI128
aI130
aI132
aI134
aI136
aI138
aI140
aI142
aI144
aI146
aI148
aI150
aI152
aI154
aI156
aI158
aI160
aI162
aI164
aI166
aI168
aI170
aI172
aI174
aI176
aI178
aI180
aI182
aI184
aI186
aI188
aI190
aI192
aI194
aI196
aI198
aI200
aI202
aI204
aI206
aI208
aI210
aI212
aI214
aI216
aI218
aI220
aI222
aI224
aI226
aI228
aI230
aI232
aI234
aI236
aI238
aI240
aI242
aI244
aI246
aI248
aI250
aI252
aI254
aI256
aI258
aI260
aI262
aI264
aI266
aI268
aI270
aI272
aI274
aI276
aI278
aI280
aI282
aI284
aI286
aI288
aI290
aI292
aI294
aI296
aI298
aI300
aI302
aI304
aI306
aI308
aI310
aI312
aI314
aI316
aI318
aI320
aI322
aI324
aI326
aI328
aI330
aI332
aI334
aI336
aI338
aI340
aI342
aI344
aI346
aI348
aI350
aI352
aI354
aI356
aI358
aI360
aI362
aI364
aI366
aI368
aI370
aI372
aI374
aI376
aI378
aI380
aI382
aI384
aI386
aI388
aI390
aI392
aI394
aI396
aI398
aI400
aI402
aI404
aI406
aI408
aI410
aI412
aI414
aI416
aI418
aI420
aI422
aI424
aI426
aI428
aI430
aI432
aI434
aI436
aI438
aI440
aI442
aI444
aI446
aI448
aI450
aI452
aI454
aI456
aI458
aI460
aI462
aI464
aI466
aI468
aI470
aI472
aI474
aI476
aI478
aI480
aI482
aI484
aI486
aI488
aI490
aI492
aI494
aI496
aI498
aI500
aI502
aI504
aI506
aI508
aI510
aI512
aI514
aI516
aI518
aI520
aI522
aI524
aI526
aI528
aI530
aI532
aI534
aI536
aI538
aI540
aI542
aI544
aI546
aI548
aI550
aI552
aI554
aI556
aI558
aI560
aI562
aI564
aI566
aI568
aI570
aI572
aI574
aI576
aI578
aI580
aI582
aI584
aI586
aI588
aI590
aI592
aI594
aI596
aI598
aI600
aI602
aI604
aI606
aI608
aI610
aI612
aI614
aI616
aI618
aI620
aI622
aI624
aI626
aI628
aI630
aI632
aI634
aI636
aI638
aI640
aI642
aI644
aI646
aI648
aI650
aI652
aI654
aI656
aI658
aI660
aI662
aI664
aI666
aI668
aI670
aI672
aI674
aI676
aI678
aI680
aI682
aI684
aI686
aI688
aI690
aI692
aI694
aI696
aI698
aI700
aI702
aI704
aI706
aI708
aI710
aI712
aI714
aI716
aI718
aI720
aI722
aI724
aI726
aI728
aI730
aI732
aI734
aI736
aI738
aI740
aI742
aI744
aI746
aI748
aI750
aI752
aI754
aI756
aI758
aI760
aI762
aI764
aI766
aI768
aI770
aI772
aI774
aI776
aI778
aI780
aI782
aI784
aI786
aI788
aI790
aI792
aI794
aI796
aI798
aI800
aI802
aI804
aI806
aI808
aI810
aI812
aI814
aI816
aI818
aI820
aI822
aI824
aI826
aI828
aI830
aI832
aI834
aI836
aI838
aI840
aI842
aI844
aI846
aI848
aI850
aI852
aI854
aI856
aI858
aI860
aI862
aI864
aI866
aI868
aI870
aI872
aI874
aI876
aI878
aI880
aI882
aI884
aI886
aI888
aI890
aI892
aI894
aI896
aI898
aI900
aI902
aI904
aI906
aI908
aI910
aI912
aI914
aI916
aI918
aI920
aI922
aI924
aI926
aI928
aI930
aI932
aI934
aI936
aI938
aI940
aI942
aI944
aI946
aI948
aI950
aI952
aI954
aI956
aI958
aI960
aI962
aI964
aI966
aI968
aI970
aI972
aI974
aI976
aI978
aI980
aI982
aI984
aI986
aI988
aI990
aI992
aI994
aI996
aI998
aI1000
aI1002
aI1004
aI1006
aI1008
aI1010
aI1012
aI1014
aI1016
aI1018
aI1020
aI1022
aI1024
aI1026
aI1028
aI1030
aI1032
aI1034
aI1036
aI1038
aI1040
aI1042
aI1044
aI1046
aI1048
aI1050
aI1052
aI1054
aI1056
aI1058
aI1060
aI1062
aI1064
aI1066
aI1068
aI1070
aI1072
aI1074
aI1076
aI1078
aI1080
aI1082
aI1084
aI1086
aI1088
aI1090
aI1092
aI1094
aI1096
aI1098
aI1100
aI1102
aI1104
aI1106
aI1108
aI1110
aI1112
aI1114
aI1116
aI1118
aI1120
aI1122
aI1124
aI1126
aI1128
aI1130
aI1132
aI1134
aI1136
aI1138
aI1140
aI1142
aI1144
aI1146
aI1148
aI1150
aI1152
aI1154
aI1156
aI1158
aI1160
aI1162
aI1164
aI1166
aI1168
aI1170
aI1172
aI1174
aI1176
aI1178
aI1180
aI1182
aI1184
aI1186
aI1188
aI1190
aI1192
aI1194
aI1196
aI1198
aI1200
aI1202
aI1204
aI1206
aI1208
aI1210
aI1212
aI1214
aI1216
aI1218
aI1220
aI1222
aI1224
aI1226
aI1228
aI1230
aI1232
aI1234
aI1236
aI1238
aI1240
aI1242
aI1244
aI1246
aI1248
aI1250
aI1252
aI1254
aI1256
aI1258
aI1260
aI1262
aI1264
aI1266
aI1268
aI1270
aI1272
aI1274
aI1276
aI1278
aI1280
aI1282
aI1284
aI1286
aI1288
aI1290
aI1292
aI1294
aI1296
aI1298
aI1300
aI1302
aI1304
aI1306
aI1308
aI1310
aI1312
aI1314
aI1316
aI1318
aI1320
aI1322
aI1324
aI1326
aI1328
aI1330
aI1332
aI1334
aI1336
aI1338
aI1340
aI1342
aI1344
aI1346
aI1348
aI1350
aI1352
aI1354
aI1356
aI1358
aI1360
aI1362
aI1364
aI1366
aI1368
aI1370
aI1372
aI1374
aI1376
aI1378
aI1380
aI1382
aI1384
aI1386
aI1388
aI1390
aI1392
aI1394
aI1396
aI1398
aI1400
aI1402
aI1404
aI1406
aI1408
aI1410
aI1412
aI1414
aI1416
aI1418
aI1420
aI1422
aI1424
aI1426
aI1428
aI1430
aI1432
aI1434
aI1436
aI1438
aI1440
aI1442
aI1444
aI1446
aI1448
aI1450
aI1452
aI1454
aI1456
aI1458
aI1460
aI1462
aI1464
aI1466
aI1468
aI1470
aI1472
aI1474
aI1476
aI1478
aI1480
aI1482
aI1484
aI1486
aI1488
aI1490
aI1492
aI1494
aI1496
aI1498
aI1500
aI1502
aI1504
aI1506
aI1508
aI1510
aI1512
aI1514
aI1516
aI1518
aI1520
aI1522
aI1524
aI1526
aI1528
aI1530
aI1532
aI1534
aI1536
aI1538
aI1540
aI1542
aI1544
aI1546
aI1548
aI1550
aI1552
aI1554
aI1556
aI1558
aI1560
aI1562
aI1564
aI1566
aI1568
aI1570
aI1572
aI1574
aI1576
aI1578
aI1580
aI1582
aI1584
aI1586
aI1588
aI1590
aI1592
aI1594
aI1596
aI1598
aI1600
aI1602
aI1604
aI1606
aI1608
aI1610
aI1612
aI1614
aI1616
aI1618
aI1620
aI1622
aI1624
aI1626
aI1628
aI1630
aI1632
aI1634
aI1636
aI1638
aI1640
aI1642
aI1644
aI1646
aI1648
aI1650
aI1652
aI1654
aI1656
aI1658
aI1660
aI1662
aI1664
aI1666
aI1668
aI1670
aI1672
aI1674
aI1676
aI1678
aI1680
aI1682
aI1684
aI1686
aI1688
aI1690
aI1692
aI1694
aI1696
aI1698
aI1700
aI1702
aI1704
aI1706
aI1708
aI1710
aI1712
aI1714
aI1716
aI1718
aI1720
aI1722
aI1724
aI1726
aI1728
aI1730
aI1732
assS'signatures'
p796
(dp797
g3
(lp798
I75
aI183
assS'text'
p799
(dp800
g3
(lp801
I995
aI1154
aI1869
aI1971
aI2056
aI2101
aI2120
aI2142
assS'chapters'
p802
(dp803
g3
(lp804
I2146
assS'lettered'
p805
(dp806
g3
(lp807
I1789
assS'copyrighted'
p808
(dp809
g3
(lp810
I1578
assS'find'
p811
(dp812
g55
(lp813
I80
assS'completion'
p814
(dp815
g3
(lp816
I712
assS'based'
p817
(dp818
g55
(lp819
I169
assS'northern'
p820
(dp821
g3
(lp822
I388
assS'laurence'
p823
(dp824
g3
(lp825
I370
aI491
aI664
assS'guidance'
p826
(dp827
g3
(lp828
I696
assS'3'
p829
(dp830
g3
(lp831
I307
aI420
aI804
aI920
aI923
aI927
aI931
aI932
aI1291
aI1303
aI1308
aI1365
aI1387
aI1398
aI1399
assS'only'
p832
(dp833
g3
(lp834
I767
aI2263
assS'equivalents'
p835
(dp836
g3
(lp837
I2149
assS'8'
p838
(dp839
g3
(lp840
I365
aI487
aI1314
aI1355
aI1381
assS'inferior'
p841
(dp842
g3
(lp843
I1121
aI1550
assS'do'
p844
(dp845
g3
(lp846
I36
aI144
aI266
aI779
aI1638
aI1729
aI1870
aI1916
aI1922
assS'means'
p847
(dp848
g3
(lp849
I719
assS'assistant'
p850
(dp851
g3
(lp852
I379
assS'foremost'
p853
(dp854
g3
(lp855
I1049
aI1478
assS'12'
p856
(dp857
g3
(lp858
I1273
assS'17'
p859
(dp860
g3
(lp861
I1263
assS'fields'
p862
(dp863
g3
(lp864
I61
aI169
assS'remove'
p865
(dp866
g3
(lp867
I1082
aI1511
assS'acknowledgments'
p868
(dp869
g3
(lp870
I643
aI645
assS'processed'
p871
(dp872
g55
(lp873
I14
aI30
aI46
aI62
assS'x'
p874
(dp875
g3
(lp876
I2214
aI2215
assS'grad'
p877
(dp878
g3
(lp879
I9
aI114
aI227
aI285
aI406
aI508
aI597
aI635
aI759
aI843
aI980
aI1173
aI1227
aI1328
aI1414
aI1600
aI1677
aI1767
aI1890
aI2302
assS'husband'
p880
(dp881
g3
(lp882
I729
assS'knowing'
p883
(dp884
g3
(lp885
I1148
assS'set'
p886
(dp887
g3
(lp888
I1573
assS'statistical'
p889
(dp890
g3
(lp891
I933
assS'defense'
p892
(dp893
g3
(lp894
I98
aI1244
aI1248
aI1350
assS'college'
p895
(dp896
g3
(lp897
I8
aI107
aI118
aI220
aI231
aI278
aI289
aI350
aI399
aI410
aI472
aI501
aI512
aI590
aI601
aI628
aI639
aI706
aI752
aI763
aI836
aI847
aI852
aI973
aI984
aI993
aI1166
aI1177
aI1220
aI1231
aI1321
aI1332
aI1407
aI1418
aI1593
aI1604
aI1670
aI1681
aI1760
aI1771
aI1883
aI1894
aI2287
aI2295
aI2306
assS'are'
p898
(dp899
g3
(lp900
I536
aI772
aI861
aI1066
aI1495
aI1784
aI1953
aI1959
aI2044
aI2161
aI2169
aI2178
aI2198
assS'encouraged'
p901
(dp902
g3
(lp903
I862
assS'ways'
p904
(dp905
g3
(lp906
I1095
aI1524
assS'subsequent'
p907
(dp908
g3
(lp909
I1342
assS'review'
p910
(dp911
g3
(lp912
I801
aI901
aI1560
assS'formatted'
p913
(dp914
g3
(lp915
I2162
aI2170
aI2179
assS'label'
p916
(dp917
g3
(lp918
I2217
assS'written'
p919
(dp920
g3
(lp921
I574
assS'between'
p922
(dp923
g3
(lp924
I1022
aI1451
assS'numerous'
p925
(dp926
g3
(lp927
I670
aI732
assS'1reprinted'
p928
(dp929
g3
(lp930
I1552
assS'available'
p931
(dp932
g3
(lp933
I111
aI224
aI282
aI403
aI505
aI594
aI632
aI756
aI840
aI977
aI1170
aI1224
aI1325
aI1411
aI1597
aI1674
aI1764
aI1887
aI2299
assS'exam'
p934
(dp935
g3
(lp936
I97
assS'missing'
p937
(dp938
g3
(lp939
I1954
assS'confusion'
p940
(dp941
g3
(lp942
I679
assS'dedication'
p943
(dp944
g3
(lp945
I605
aI616
assS'20'
p946
(dp947
g3
(lp948
I1257
assS'optional'
p949
(dp950
g3
(lp951
I237
aI256
aI607
assS'climate'
p952
(dp953
g3
(lp954
I1021
aI1450
assS'providing'
p955
(dp956
g3
(lp957
I714
assS'last'
p958
(dp959
g3
(lp960
I2238
assS'always'
p961
(dp962
g3
(lp963
I741
aI1117
aI1546
assS'many'
p964
(dp965
g3
(lp966
I657
aI659
aI1044
aI1473
assS'conclusions'
p967
(dp968
g3
(lp969
I817
aI954
assS'against'
p970
(dp971
g3
(lp972
I2051
aI2115
assS'display'
p973
(dp974
g3
(lp975
I1156
aI1989
assS'etc'
p976
(dp977
g3
(lp978
I1793
aI2112
aI2154
assS's'
p979
(dp980
g3
(lp981
I128
aI187
aI190
aI427
aI562
aI1197
aI1207
aI2261
asg55
(lp982
I209
aI209
assS'figures'
p983
(dp984
g3
(lp985
I896
aI1615
aI1626
aI1647
aI1658
aI1693
aI1705
aI1736
aI1748
aI2110
aI2182
aI2197
aI2210
aI2226
assS'pdf'
p986
(dp987
g3
(lp988
I43
aI151
assS'finds'
p989
(dp990
g55
(lp991
I4
aI20
aI36
aI52
aI102
aI123
assS'comes'
p992
(dp993
g3
(lp994
I1006
aI1435
assS'among'
p995
(dp996
g3
(lp997
I907
aI1432
assS'cancer'
p998
(dp999
g3
(lp1000
I1026
aI1455
assS'simple'
p1001
(dp1002
g3
(lp1003
I1612
assS'62'
p1004
(dp1005
g3
(lp1006
I935
assS'approval'
p1007
(dp1008
g3
(lp1009
I17
aI124
aI199
aI203
aI2021
assS'69'
p1010
(dp1011
g3
(lp1012
I810
aI939
assS'expensive'
p1013
(dp1014
g3
(lp1015
I1108
aI1537
assS'been'
p1016
(dp1017
g3
(lp1018
I651
aI1813
aI1914
assS'much'
p1019
(dp1020
g3
(lp1021
I1106
aI1535
assS'parents'
p1022
(dp1023
g3
(lp1024
I730
assS'4'
p1025
(dp1026
g3
(lp1027
I808
aI937
aI1287
aI1290
aI1295
aI1305
aI1306
aI1307
aI1363
aI1395
aI1397
assS'through'
p1028
(dp1029
g3
(lp1030
I2144
aI2184
aI2231
assS'offered'
p1031
(dp1032
g3
(lp1033
I695
assS'c'
p1034
(dp1035
g3
(lp1036
I1792
assS'roasting'
p1037
(dp1038
g3
(lp1039
I1127
aI1130
assS'uin'
p1040
(dp1041
g3
(lp1042
I23
aI131
assS'161'
p1043
(dp1044
g3
(lp1045
I1571
assS'those'
p1046
(dp1047
g3
(lp1048
I2052
aI2116
assS'multi'
p1049
(dp1050
g3
(lp1051
I2208
assS'look'
p1052
(dp1053
g3
(lp1054
I2230
assS'these'
p1055
(dp1056
g3
(lp1057
I1083
aI1512
assS'batch'
p1058
(dp1059
g3
(lp1060
I1142
assS'n'
p1061
(dp1062
g3
(lp1063
I1205
assS'endured'
p1064
(dp1065
g3
(lp1066
I735
assS'cont'
p1067
(dp1068
g3
(lp1069
I1346
aI2216
assS'ripe'
p1070
(dp1071
g3
(lp1072
I1034
aI1463
assS'almost'
p1073
(dp1074
g3
(lp1075
I1015
aI1444
assS'vi'
p1076
(dp1077
g3
(lp1078
I793
aI881
assS'coffee'
p1079
(dp1080
g3
(lp1081
I313
aI432
aI890
aI905
aI1004
aI1005
aI1030
aI1045
aI1073
aI1128
aI1140
aI1240
aI1430
aI1434
aI1459
aI1474
aI1489
aI1502
aI1564
aI1567
assS'iv'
p1082
(dp1083
g3
(lp1084
I746
assS'helped'
p1085
(dp1086
g3
(lp1087
I673
assS'itself'
p1088
(dp1089
g3
(lp1090
I1997
aI2030
assS'garvie'
p1091
(dp1092
g3
(lp1093
I245
aI325
aI444
aI1557
assS'arabic'
p1094
(dp1095
g3
(lp1096
I1157
assS'rotated'
p1097
(dp1098
g3
(lp1099
I1181
aI1191
assS'if'
p1100
(dp1101
g3
(lp1102
I253
aI1781
aI1982
aI2041
aI2113
assS'different'
p1103
(dp1104
g3
(lp1105
I1146
assS'present'
p1106
(dp1107
g55
(lp1108
I86
assS'doctor'
p1109
(dp1110
g3
(lp1111
I338
assS'perform'
p1112
(dp1113
g3
(lp1114
I2121
aI2220
assS'thesis'
p1115
(dp1116
g3
(lp1117
I1
aI12
aI15
aI44
aI108
aI119
aI122
aI152
aI221
aI232
aI265
aI279
aI290
aI400
aI411
aI448
aI502
aI513
aI563
aI591
aI602
aI629
aI640
aI753
aI764
aI837
aI848
aI974
aI985
aI1167
aI1178
aI1221
aI1232
aI1243
aI1247
aI1322
aI1333
aI1349
aI1408
aI1419
aI1594
aI1605
aI1671
aI1682
aI1761
aI1772
aI1817
aI1836
aI1846
aI1858
aI1884
aI1895
aI1897
aI1939
aI2019
aI2189
aI2236
aI2248
aI2288
aI2296
aI2307
assS'roman'
p1118
(dp1119
g3
(lp1120
I581
assS'same'
p1121
(dp1122
g3
(lp1123
I1041
aI1470
aI2123
aI2222
assS'member'
p1124
(dp1125
g3
(lp1126
I212
assS'matches'
p1127
(dp1128
g3
(lp1129
I2096
asg55
(lp1130
I210
aI210
assS'9'
p1131
(dp1132
g3
(lp1133
I1353
assS'grows'
p1134
(dp1135
g3
(lp1136
I1013
aI1442
assS'difficult'
p1137
(dp1138
g3
(lp1139
I1136
assS'week'
p1140
(dp1141
g3
(lp1142
I1370
assS'used'
p1143
(dp1144
g3
(lp1145
I68
aI176
aI1804
assS'comprehensive'
p1146
(dp1147
g3
(lp1148
I522
assS'director'
p1149
(dp1150
g3
(lp1151
I80
aI376
assS'levels'
p1152
(dp1153
g3
(lp1154
I867
assS'uses'
p1155
(dp1156
g55
(lp1157
I77
assS'user'
p1158
(dp1159
g3
(lp1160
I1932
asg55
(lp1161
I146
aI146
aI212
aI231
aI243
assS'student'
p1162
(dp1163
g3
(lp1164
I93
aI189
aI2260
assS'numbered'
p1165
(dp1166
g3
(lp1167
I271
aI1960
aI2199
assS'lower'
p1168
(dp1169
g3
(lp1170
I868
assS'database'
p1171
(dp1172
g55
(lp1173
I110
aI132
aI233
aI246
assS'i'
p1174
(dp1175
g3
(lp1176
I1202
aI1966
assS'changes'
p1177
(dp1178
g3
(lp1179
I2280
assS'49'
p1180
(dp1181
g3
(lp1182
I926
assS'analysis'
p1183
(dp1184
g3
(lp1185
I934
assS'without'
p1186
(dp1187
g3
(lp1188
I653
assS'english'
p1189
(dp1190
g3
(lp1191
I576
assS'position'
p1192
(dp1193
g55
(lp1194
I48
aI54
aI193
assS'numbering'
p1195
(dp1196
g3
(lp1197
I1609
aI1634
aI1642
aI1686
aI1864
aI1874
aI2083
assS'reviewed'
p1198
(dp1199
g3
(lp1200
I1853
assS'matchers'
p1201
(dp1202
g55
(lp1203
I173
assS'shape'
p1204
(dp1205
g55
(lp1206
I0
aI6
aI72
assS'thanks'
p1207
(dp1208
g3
(lp1209
I660
aI681
aI699
aI726
assS'human'
p1210
(dp1211
g3
(lp1212
I345
aI467
assS'graduate'
p1213
(dp1214
g3
(lp1215
I7
aI106
aI117
aI210
aI219
aI230
aI277
aI288
aI316
aI349
aI398
aI409
aI435
aI471
aI500
aI511
aI528
aI589
aI600
aI627
aI638
aI705
aI751
aI762
aI835
aI846
aI851
aI972
aI983
aI992
aI1165
aI1176
aI1219
aI1230
aI1320
aI1331
aI1406
aI1417
aI1592
aI1603
aI1669
aI1680
aI1759
aI1770
aI1882
aI1893
aI2286
aI2294
aI2305
assS'previous'
p1216
(dp1217
g3
(lp1218
I1636
assS'tables'
p1219
(dp1220
g3
(lp1221
I894
aI1617
aI1628
aI1649
aI1660
aI1695
aI1707
aI1738
aI1750
aI2111
aI2219
assS'doctoral'
p1222
(dp1223
g3
(lp1224
I20
aI78
aI295
aI367
aI545
aI553
aI565
aI1861
assS'bibliography'
p1225
(dp1226
g3
(lp1227
I2152
assS'generator'
p1228
(dp1229
g55
(lp1230
I155
assS'mother'
p1231
(dp1232
g3
(lp1233
I621
assS'intends'
p1234
(dp1235
g3
(lp1236
I1933
assS'source'
p1237
(dp1238
g3
(lp1239
I1052
aI1481
assS'extends'
p1240
(dp1241
g3
(lp1242
I2253
assS'location'
p1243
(dp1244
g55
(lp1245
I189
assS'wet'
p1246
(dp1247
g3
(lp1248
I1101
aI1103
aI1530
aI1532
assS'5'
p1249
(dp1250
g3
(lp1251
I308
aI310
aI311
aI361
aI421
aI445
aI446
aI483
aI812
aI941
aI944
aI948
aI1289
aI1292
aI1304
aI1311
aI1361
aI1393
aI1396
assS'has'
p1252
(dp1253
g3
(lp1254
I1812
assS'match'
p1255
(dp1256
g3
(lp1257
I30
aI138
aI2011
assS'harvesting'
p1258
(dp1259
g3
(lp1260
I1079
aI1508
assS'read'
p1261
(dp1262
g3
(lp1263
I668
assS'showing'
p1264
(dp1265
g3
(lp1266
I1622
aI1701
assS'possible'
p1267
(dp1268
g3
(lp1269
I652
assS'makes'
p1270
(dp1271
g55
(lp1272
I158
assS'appendices'
p1273
(dp1274
g3
(lp1275
I1783
assS'color'
p1276
(dp1277
g55
(lp1278
I32
aI38
aI75
assS'like'
p1279
(dp1280
g3
(lp1281
I1010
aI1439
assS'd'
p1282
(dp1283
g3
(lp1284
I1204
assS'signal'
p1285
(dp1286
g55
(lp1287
I153
aI175
aI201
assS'51'
p1288
(dp1289
g3
(lp1290
I930
assS'specific'
p1291
(dp1292
g55
(lp1293
I147
aI213
aI240
assS'continue'
p1294
(dp1295
g3
(lp1296
I1633
aI1866
assS't'
p1297
(dp1298
g3
(lp1299
I665
aI1212
assS'january'
p1300
(dp1301
g3
(lp1302
I4
assS'output'
p1303
(dp1304
g55
(lp1305
I198
assS'decimal'
p1306
(dp1307
g3
(lp1308
I1690
aI1714
aI1723
assS'www'
p1309
(dp1310
g3
(lp1311
I113
aI226
aI284
aI405
aI507
aI596
aI634
aI758
aI842
aI979
aI1172
aI1226
aI1327
aI1413
aI1599
aI1676
aI1766
aI1889
aI2301
assS'people'
p1312
(dp1313
g3
(lp1314
I658
assS'some'
p1315
(dp1316
g3
(lp1317
I675
aI1807
asg55
(lp1318
I206
aI206
assS'identified'
p1319
(dp1320
g55
(lp1321
I11
aI27
aI43
aI59
aI71
aI229
assS'110'
p1322
(dp1323
g3
(lp1324
I829
aI966
aI1877
assS'table'
p1325
(dp1326
g3
(lp1327
I785
aI789
aI873
aI877
aI1196
aI1237
aI1238
aI1336
aI1344
aI2026
aI2048
aI2071
aI2092
aI2128
assS'images'
p1328
(dp1329
g55
(lp1330
I247
assS'questionnaire'
p1331
(dp1332
g3
(lp1333
I823
aI960
aI1796
aI1803
aI1826
assS'provided'
p1334
(dp1335
g55
(lp1336
I190
assS'shrub'
p1337
(dp1338
g3
(lp1339
I1009
aI1438
assS'bottom'
p1340
(dp1341
g3
(lp1342
I391
aI493
assS'recorded'
p1343
(dp1344
g3
(lp1345
I2016
assS'does'
p1346
(dp1347
g3
(lp1348
I853
aI2275
assS'provider'
p1349
(dp1350
g55
(lp1351
I92
aI113
assS'anne'
p1352
(dp1353
g3
(lp1354
I243
aI323
aI442
assS'limitations'
p1355
(dp1356
g3
(lp1357
I950
assS'be'
p1358
(dp1359
g3
(lp1360
I26
aI134
aI206
aI259
aI573
aI1190
aI1788
aI1819
aI1832
aI1852
aI2268
aI2282
asg55
(lp1361
I225
aI225
assS'journal'
p1362
(dp1363
g3
(lp1364
I1565
assS'processing'
p1365
(dp1366
g3
(lp1367
I1060
aI1098
aI1102
aI1104
aI1116
aI1139
aI1527
aI1531
aI1533
aI1545
assS'step'
p1368
(dp1369
g3
(lp1370
I1077
aI1506
assS'although'
p1371
(dp1372
g3
(lp1373
I1109
aI1538
assS'stage'
p1374
(dp1375
g3
(lp1376
I1137
assS'chapter'
p1377
(dp1378
g3
(lp1379
I794
aI798
aI803
aI807
aI811
aI815
aI882
aI898
aI919
aI936
aI940
aI952
aI997
aI1424
aI1587
aI1613
aI1631
aI1637
aI1645
aI1663
aI1689
aI1691
aI1710
aI1716
aI1728
aI1734
aI1753
aI2036
aI2148
aI2159
assS'completing'
p1380
(dp1381
g3
(lp1382
I543
assS'conferral'
p1383
(dp1384
g3
(lp1385
I241
assS'page'
p1386
(dp1387
g3
(lp1388
I35
aI143
aI236
aI252
aI257
aI262
aI272
aI294
aI301
aI304
aI393
aI417
aI425
aI431
aI495
aI580
aI606
aI617
aI644
aI996
aI1151
aI1187
aI1236
aI1585
aI1624
aI1656
aI1703
aI1746
aI1776
aI1830
aI1863
aI1963
aI1965
aI1968
aI1973
aI1981
aI1987
aI1990
aI1995
aI2010
aI2066
aI2209
aI2251
assS'seeds'
p1389
(dp1390
g3
(lp1391
I1063
aI1492
assS'ensure'
p1392
(dp1393
g3
(lp1394
I1949
assS'permission'
p1395
(dp1396
g3
(lp1397
I1554
assS'software'
p1398
(dp1399
g3
(lp1400
I1920
assS'previously'
p1401
(dp1402
g3
(lp1403
I1577
assS'image'
p1404
(dp1405
g55
(lp1406
I15
aI31
aI47
aI63
aI89
aI185
aI244
aI249
assS'within'
p1407
(dp1408
g3
(lp1409
I1068
aI1497
aI1727
assS'references'
p1410
(dp1411
g3
(lp1412
I819
aI956
assS'frames'
p1413
(dp1414
g55
(lp1415
I186
aI245
aI250
assS'financial'
p1416
(dp1417
g3
(lp1418
I718
assS'consecutively'
p1419
(dp1420
g3
(lp1421
I1961
aI2202
assS'your'
p1422
(dp1423
g3
(lp1424
I1911
aI1923
assS'rely'
p1425
(dp1426
g3
(lp1427
I1918
assS'additional'
p1428
(dp1429
g3
(lp1430
I202
assS'support'
p1431
(dp1432
g3
(lp1433
I655
aI698
aI743
assS'there'
p1434
(dp1435
g3
(lp1436
I567
assS'hazards'
p1437
(dp1438
g55
(lp1439
I126
aI133
aI140
aI214
aI232
aI234
aI239
assS'long'
p1440
(dp1441
g3
(lp1442
I737
assS'approved'
p1443
(dp1444
g3
(lp1445
I1855
assS'start'
p1446
(dp1447
g3
(lp1448
I1641
aI1873
assS'joseph'
p1449
(dp1450
g3
(lp1451
I374
aI686
assS'dissertations'
p1452
(dp1453
g3
(lp1454
I321
aI440
assS'sections'
p1455
(dp1456
g3
(lp1457
I770
assS'files'
p1458
(dp1459
g3
(lp1460
I1849
assS'head'
p1461
(dp1462
g3
(lp1463
I101
aI214
assS'complete'
p1464
(dp1465
g3
(lp1466
I721
assS'inches'
p1467
(dp1468
g3
(lp1469
I306
aI309
aI312
aI362
aI366
aI419
aI422
aI447
aI484
aI488
assS'6'
p1470
(dp1471
g3
(lp1472
I816
aI953
aI1309
aI1359
aI1394
assS'extended'
p1473
(dp1474
g3
(lp1475
I876
assS'automated'
p1476
(dp1477
g3
(lp1478
I1925
assS'e'
p1479
(dp1480
g3
(lp1481
I777
aI1198
aI1208
aI2150
assS'line'
p1482
(dp1483
g3
(lp1484
I1423
aI1575
assS'trying'
p1485
(dp1486
g3
(lp1487
I318
aI437
assS'true'
p1488
(dp1489
g3
(lp1490
I1113
aI1542
asg55
(lp1491
I203
aI203
assS'count'
p1492
(dp1493
g3
(lp1494
I268
assS'places'
p1495
(dp1496
g55
(lp1497
I180
assS'placed'
p1498
(dp1499
g3
(lp1500
I773
aI2201
assS'89'
p1501
(dp1502
g3
(lp1503
I814
aI943
assS'limit'
p1504
(dp1505
g3
(lp1506
I571
assS'stages'
p1507
(dp1508
g3
(lp1509
I541
assS'average'
p1510
(dp1511
g3
(lp1512
I1277
aI1282
aI1371
aI1376
assS'strongly'
p1513
(dp1514
g3
(lp1515
I58
aI166
assS'abstract'
p1516
(dp1517
g3
(lp1518
I516
aI518
aI556
aI578
aI782
assS'general'
p1519
(dp1520
g3
(lp1521
I912
assS'warning'
p1522
(dp1523
g55
(lp1524
I152
aI167
aI174
aI200
aI219
assS'file'
p1525
(dp1526
g3
(lp1527
I45
aI153
aI1780
aI1824
aI1841
assS'check'
p1528
(dp1529
g3
(lp1530
I1935
aI2034
aI2063
aI2077
aI2102
aI2124
aI2132
aI2136
aI2181
aI2218
aI2223
aI2227
assS'fill'
p1531
(dp1532
g3
(lp1533
I53
aI161
assS'no'
p1534
(dp1535
g3
(lp1536
I569
aI1951
aI2244
aI2279
assS'not'
p1537
(dp1538
g3
(lp1539
I37
aI63
aI145
aI171
aI267
aI612
aI649
aI780
aI854
aI863
aI989
aI1112
aI1541
aI1639
aI1730
aI1871
aI1917
aI1928
aI2267
aI2276
assS'when'
p1540
(dp1541
g3
(lp1542
I67
aI175
assS'40'
p1543
(dp1544
g3
(lp1545
I806
aI922
assS'illinois'
p1546
(dp1547
g3
(lp1548
I10
aI115
aI228
aI286
aI355
aI364
aI389
aI407
aI477
aI486
aI509
aI534
aI598
aI636
aI704
aI760
aI844
aI981
aI1174
aI1228
aI1329
aI1415
aI1601
aI1678
aI1768
aI1891
aI2303
assS'other'
p1549
(dp1550
g3
(lp1551
I1977
aI2249
assS'compares'
p1552
(dp1553
g55
(lp1554
I137
assS'department'
p1555
(dp1556
g3
(lp1557
I100
aI213
aI1912
assS'tif'
p1558
(dp1559
g3
(lp1560
I1827
assS'10'
p1561
(dp1562
g3
(lp1563
I1351
assS'requested'
p1564
(dp1565
g3
(lp1566
I1909
aI2283
assS'repeat'
p1567
(dp1568
g3
(lp1569
I2131
assS'generates'
p1570
(dp1571
g55
(lp1572
I196
assS'students'
p1573
(dp1574
g3
(lp1575
I21
aI79
aI129
aI188
aI296
aI317
aI428
aI436
aI529
aI554
aI860
aI908
aI1433
aI1901
assS'included'
p1576
(dp1577
g3
(lp1578
I254
aI613
aI1785
aI1833
aI1983
aI2042
aI2114
assS'friends'
p1579
(dp1580
g3
(lp1581
I733
assS'implies'
p1582
(dp1583
g55
(lp1584
I204
assS'required'
p1585
(dp1586
g3
(lp1587
I76
aI184
aI517
aI558
aI990
assS'daily'
p1588
(dp1589
g3
(lp1590
I1278
aI1283
aI1372
aI1377
assS'strings'
p1591
(dp1592
g55
(lp1593
I235
assS'u'
p1594
(dp1595
g3
(lp1596
I1200
assS'time'
p1597
(dp1598
g3
(lp1599
I1042
aI1245
aI1347
aI1471
aI1947
aI2239
assS'nutrient'
p1600
(dp1601
g55
(lp1602
I91
assS'hello'
p1603
(dp1604
g119
(lp1605
I0
aI2
aI4
aI6
aI8
aI10
aI12
aI14
aI16
aI18
aI20
aI22
aI24
aI26
aI28
aI30
aI32
ass.