(dp0
S'partial'
p1
(dp2
S'example.pdf'
p3
(lp4
I120
aI170
assS'results'
p5
(dp6
g3
(lp7
I289
aI341
assS'leads'
p8
(dp9
g3
(lp10
I402
aI716
assS'preface'
p11
(dp12
g3
(lp13
I281
aI322
assS'go'
p14
(dp15
g3
(lp16
I932
assS'chair'
p17
(dp18
g3
(lp19
I136
assS'fellowship'
p20
(dp21
g3
(lp22
I259
assS'elizabeth'
p23
(dp24
g3
(lp25
I81
aI116
aI164
assS'father'
p26
(dp27
g3
(lp28
I235
assS'contained'
p29
(dp30
g3
(lp31
I928
assS'0'
p32
(dp33
g3
(lp34
I552
aI636
aI654
assS'finally'
p35
(dp36
g3
(lp37
I261
aI944
assS'critical'
p38
(dp39
g3
(lp40
I406
assS'voted'
p41
(dp42
g3
(lp43
I34
assS'celia'
p44
(dp45
g3
(lp46
I139
aI253
assS'include'
p47
(dp48
g3
(lp49
I13
aI21
aI47
aI55
aI271
aI312
aI586
assS'adviser'
p50
(dp51
g3
(lp52
I33
aI67
aI68
aI184
aI249
aI886
assS'string'
p53
(dp54
S'a.txt'
p55
(lp56
I20
assS'very'
p57
(dp58
g3
(lp59
I200
assS'20xx'
p60
(dp61
g3
(lp62
I81
aI126
aI176
assS'every'
p63
(dp64
g3
(lp65
I206
aI408
assS'presented'
p66
(dp67
g3
(lp68
I877
assS'list'
p69
(dp70
g3
(lp71
I39
aI71
aI93
aI143
aI190
aI225
aI239
aI267
aI275
aI303
aI361
aI423
aI480
aI582
aI676
aI745
aI804
aI858
aI898
aI928
aI930
aI952
assS'item'
p72
(dp73
g55
(lp74
I1
aI2
aI3
aI4
assS'offering'
p75
(dp76
g3
(lp77
I263
assS'heading'
p78
(dp79
g3
(lp80
I231
aI312
aI367
aI923
aI925
assS'edu'
p81
(dp82
g3
(lp83
I7
aI41
aI73
aI95
aI145
aI192
aI227
aI241
aI269
aI305
aI363
aI425
aI482
aI584
aI678
aI749
aI806
aI860
aI900
aI954
assS'sign'
p84
(dp85
g55
(lp86
I14
assS'titles'
p87
(dp88
g3
(lp89
I921
aI934
assS'video'
p90
(dp91
g55
(lp92
I16
aI24
assS'pass'
p93
(dp94
g3
(lp95
I34
assS'dissertation'
p96
(dp97
g3
(lp98
I7
aI9
aI43
aI118
aI208
aI257
aI917
assS'what'
p99
(dp100
g3
(lp101
I325
aI380
assS'errors'
p102
(dp103
g3
(lp104
I913
aI919
assS'sub'
p105
(dp106
g3
(lp107
I935
assS'unripe'
p108
(dp109
g3
(lp110
I386
aI698
assS'section'
p111
(dp112
g3
(lp113
I68
aI68
aI771
aI796
aI818
aI826
aI850
aI921
assS'caffeine'
p114
(dp115
g3
(lp116
I198
aI331
aI388
aI700
assS'aayush'
p117
(dp118
S'b.txt'
p119
(lp120
I0
aI1
aI2
aI3
aI4
aI5
aI6
aI7
aI8
aI9
aI10
aI11
aI12
aI13
aI14
aI15
aI15
assS'consistently'
p121
(dp122
g3
(lp123
I934
aI935
aI936
assS'numeral'
p124
(dp125
g3
(lp126
I221
aI412
assS'method'
p127
(dp128
g3
(lp129
I759
aI810
assS'full'
p130
(dp131
g3
(lp132
I39
aI71
aI93
aI143
aI190
aI225
aI239
aI267
aI303
aI361
aI423
aI480
aI582
aI676
aI745
aI804
aI858
aI898
aI952
assS'degree'
p133
(dp134
g3
(lp135
I15
aI49
aI78
aI122
aI172
aI915
aI915
assS'here'
p136
(dp137
g3
(lp138
I275
aI314
assS'100'
p139
(dp140
g3
(lp141
I293
aI348
assS'appears'
p142
(dp143
g3
(lp144
I84
assS'104'
p145
(dp146
g3
(lp147
I295
aI350
assS'dry'
p148
(dp149
g3
(lp150
I398
aI400
aI712
aI714
assS'parameters'
p151
(dp152
g55
(lp153
I6
assS'items'
p154
(dp155
g3
(lp156
I928
assS'study'
p157
(dp158
g3
(lp159
I198
aI202
assS'title'
p160
(dp161
g3
(lp162
I18
aI18
aI19
aI52
aI52
aI53
aI85
aI97
aI154
aI909
aI910
aI913
aI915
aI915
aI915
aI923
aI925
assS'35'
p163
(dp164
g3
(lp165
I331
assS'credit'
p166
(dp167
g3
(lp168
I682
aI736
assS'survey'
p169
(dp170
g3
(lp171
I299
aI353
aI874
assS'studies'
p172
(dp173
g3
(lp174
I719
assS'named'
p175
(dp176
g3
(lp177
I877
assS'love'
p178
(dp179
g3
(lp180
I263
assS'app'
p181
(dp182
g3
(lp183
I31
aI65
assS'boolean'
p184
(dp185
g55
(lp186
I18
assS'use'
p187
(dp188
g3
(lp189
I25
aI59
aI904
aI948
aI948
assS'takes'
p190
(dp191
g55
(lp192
I6
aI8
aI10
assS'consumption'
p193
(dp194
g3
(lp195
I110
aI158
aI198
aI330
aI486
aI690
aI704
assS'tda'
p196
(dp197
g3
(lp198
I9
aI21
aI43
aI55
aI917
assS'contains'
p199
(dp200
g55
(lp201
I20
aI22
aI24
assS'two'
p202
(dp203
g3
(lp204
I221
aI394
aI398
aI708
aI712
assS'next'
p205
(dp206
g3
(lp207
I924
assS'review1'
p208
(dp209
g3
(lp210
I686
assS'soil'
p211
(dp212
g3
(lp213
I382
aI694
assS'preview'
p214
(dp215
g3
(lp216
I31
aI65
assS'more'
p217
(dp218
g3
(lp219
I400
aI714
assS'it'
p220
(dp221
g3
(lp222
I83
aI400
aI714
asg55
(lp223
I8
aI8
aI10
assS'appendix'
p224
(dp225
g3
(lp226
I297
aI352
aI821
aI864
aI872
aI880
aI882
aI885
aI934
assS'93'
p227
(dp228
g3
(lp229
I345
assS'92'
p230
(dp231
g3
(lp232
I344
assS'iii'
p233
(dp234
g3
(lp235
I237
assS'supplemental'
p236
(dp237
g3
(lp238
I864
aI877
aI881
aI884
assS'must'
p239
(dp240
g3
(lp241
I15
aI18
aI49
aI52
aI68
aI216
aI410
aI880
aI885
assS'me'
p242
(dp243
g3
(lp244
I257
aI259
aI263
assS'ii'
p245
(dp246
g3
(lp247
I223
assS'pagination'
p248
(dp249
g3
(lp250
I907
assS'word'
p251
(dp252
g3
(lp253
I212
assS'f'
p254
(dp255
g3
(lp256
I458
assS'this'
p257
(dp258
g3
(lp259
I87
aI198
aI247
aI259
aI263
aI396
aI710
aI877
aI948
aI948
asg55
(lp260
I1
aI1
aI2
aI3
aI4
aI6
aI8
aI10
aI12
aI14
aI16
assS'science'
p261
(dp262
g3
(lp263
I122
aI172
aI172
assS'work'
p264
(dp265
g3
(lp266
I905
assS'v'
p267
(dp268
g3
(lp269
I301
aI358
assS'my'
p270
(dp271
g3
(lp272
I249
aI251
aI253
aI261
assS'fulfillment'
p273
(dp274
g3
(lp275
I120
aI170
assS'figure'
p276
(dp277
g3
(lp278
I437
aI447
aI586
aI759
aI767
aI790
aI810
aI814
aI824
aI832
aI939
assS'process'
p279
(dp280
g3
(lp281
I263
assS'intake'
p282
(dp283
g3
(lp284
I518
aI521
aI628
aI631
assS'caffeinated'
p285
(dp286
g3
(lp287
I519
aI629
assS'sample'
p288
(dp289
g3
(lp290
I0
aI9
aI43
aI75
aI97
aI154
aI194
aI229
aI243
aI277
aI316
aI372
aI437
aI484
aI682
aI759
aI810
aI864
assS'indicates'
p291
(dp292
g3
(lp293
I820
aI823
assS'tag'
p294
(dp295
g55
(lp296
I14
aI14
aI16
aI16
aI20
assS'numbers'
p297
(dp298
g3
(lp299
I367
aI445
aI911
aI946
assS'sense'
p300
(dp301
g3
(lp302
I251
assS'guarantee'
p303
(dp304
g3
(lp305
I948
assS'information'
p306
(dp307
g55
(lp308
I20
assS'requirements'
p309
(dp310
g3
(lp311
I39
aI41
aI71
aI73
aI93
aI95
aI120
aI143
aI145
aI170
aI190
aI192
aI225
aI227
aI239
aI241
aI267
aI269
aI303
aI305
aI361
aI363
aI423
aI425
aI480
aI482
aI582
aI584
aI676
aI678
aI745
aI749
aI804
aI806
aI858
aI860
aI898
aI900
aI952
aI954
assS'turn'
p312
(dp313
g3
(lp314
I938
assS'verify'
p315
(dp316
g3
(lp317
I915
aI934
aI938
assS'discussion'
p318
(dp319
g3
(lp320
I291
aI343
assS'six'
p321
(dp322
g3
(lp323
I202
assS'1'
p324
(dp325
g3
(lp326
I283
aI283
aI324
aI324
aI325
aI325
aI325
aI326
aI330
aI336
aI344
aI374
aI380
aI380
aI392
aI392
aI392
aI404
aI404
aI404
aI404
aI415
aI478
aI486
aI544
aI546
aI548
aI592
aI614
aI638
aI642
aI650
aI690
aI704
aI704
aI759
aI761
aI767
aI776
aI798
aI812
aI814
aI814
aI832
aI852
aI894
aI910
assS'how'
p327
(dp328
g3
(lp329
I408
assS'methodology'
p330
(dp331
g3
(lp332
I287
aI335
aI337
assS'champaign'
p333
(dp334
g3
(lp335
I126
aI176
assS'beans'
p336
(dp337
g3
(lp338
I392
aI394
aI396
aI404
aI408
aI708
aI710
assS'product'
p339
(dp340
g3
(lp341
I402
aI716
assS'145'
p342
(dp343
g3
(lp344
I720
assS'intended'
p345
(dp346
g3
(lp347
I30
aI64
assS'may'
p348
(dp349
g3
(lp350
I28
aI62
aI446
aI877
aI905
assS'after'
p351
(dp352
g3
(lp353
I273
aI396
aI710
aI823
aI904
assS'hazard'
p354
(dp355
g55
(lp356
I10
aI12
aI14
aI18
assS'faculty'
p357
(dp358
g3
(lp359
I68
assS'end'
p360
(dp361
g3
(lp362
I907
aI938
assS'spelling'
p363
(dp364
g3
(lp365
I913
aI919
aI924
assS'data'
p366
(dp367
g3
(lp368
I876
assS'short'
p369
(dp370
g3
(lp371
I277
assS'prefers'
p372
(dp373
g3
(lp374
I384
aI696
assS'harshit'
p375
(dp376
g119
(lp377
I16
aI17
aI18
aI19
aI20
aI21
aI22
aI23
aI24
aI25
aI26
aI27
aI28
aI29
aI30
aI31
aI32
aI33
aI34
aI35
aI36
aI37
aI38
aI39
aI40
aI41
aI42
aI43
aI44
aI45
aI46
aI47
aI48
aI49
aI50
aI51
aI52
aI53
aI54
aI55
aI56
aI57
aI58
aI59
aI60
aI61
aI62
aI63
aI64
aI65
aI66
aI67
aI68
aI69
aI70
aI71
aI72
aI73
aI74
aI75
aI76
aI77
aI78
aI79
aI80
aI81
aI82
aI83
aI84
aI85
aI86
aI87
aI88
aI89
aI90
aI91
aI92
aI93
aI94
aI95
aI96
aI97
aI98
aI99
aI100
aI101
aI102
aI103
aI104
aI105
aI106
aI107
aI108
aI109
aI110
aI111
aI112
aI113
aI114
aI115
aI116
aI117
aI118
aI119
aI120
aI121
aI122
aI123
aI124
aI125
aI126
aI127
aI128
aI129
aI130
aI131
aI132
aI133
aI134
aI135
aI136
aI137
aI138
aI139
aI140
aI141
aI142
aI143
aI144
aI145
aI146
aI147
aI148
aI149
aI150
aI151
aI152
aI153
aI154
aI155
aI156
aI157
aI158
aI159
aI160
aI161
aI162
aI163
aI164
aI165
aI166
aI167
aI168
aI169
aI170
aI171
aI172
aI173
aI174
aI175
aI176
aI177
aI178
aI179
aI180
aI181
aI182
aI183
aI184
aI185
aI186
aI187
aI188
aI189
aI190
aI191
aI192
aI193
aI194
aI195
aI196
aI197
aI198
aI199
aI200
aI201
aI202
aI203
aI204
aI205
aI206
aI207
aI208
aI209
aI210
aI211
aI212
aI213
aI214
aI215
aI216
aI217
aI218
aI219
aI220
aI221
aI222
aI223
aI224
aI225
aI226
aI227
aI228
aI229
aI230
aI231
aI232
aI233
aI234
aI235
aI236
aI237
aI238
aI239
aI240
aI241
aI242
aI243
aI244
aI245
aI246
aI247
aI248
aI249
aI250
aI251
aI252
aI253
aI254
aI255
aI256
aI257
aI258
aI259
aI260
aI261
aI262
aI263
aI264
aI265
aI266
aI267
aI268
aI269
aI270
aI271
aI272
aI273
aI274
aI275
aI276
aI277
aI278
aI279
aI280
aI281
aI282
aI283
aI284
aI285
aI286
aI287
aI288
aI289
aI290
aI291
aI292
aI293
aI294
aI295
aI296
aI297
aI298
aI299
aI300
aI301
aI302
aI303
aI304
aI305
aI306
aI307
aI308
aI309
aI310
aI311
aI312
aI313
aI314
aI315
aI316
aI317
aI318
aI319
aI320
aI321
aI322
aI323
aI324
aI325
aI326
aI327
aI328
aI329
aI330
aI331
aI332
aI333
aI334
aI335
aI336
aI337
aI338
aI339
aI340
aI341
aI342
aI343
aI344
aI345
aI346
aI347
aI348
aI349
aI350
aI351
aI352
aI353
aI354
aI355
aI356
aI357
aI358
aI359
aI360
aI361
aI362
aI363
aI364
aI365
aI366
aI367
aI368
aI369
aI370
aI371
aI372
aI373
aI374
aI375
aI376
aI377
aI378
aI379
aI380
aI381
aI382
aI383
aI384
aI385
aI386
aI387
aI388
aI389
aI390
aI391
aI392
aI393
aI394
aI395
aI396
aI397
aI398
aI399
aI400
aI401
aI402
aI403
aI404
aI405
aI406
aI407
aI408
aI409
aI410
aI411
aI412
aI413
aI414
aI415
aI416
aI417
aI418
aI419
aI420
aI421
aI422
aI423
aI424
aI425
aI426
aI427
aI428
aI429
aI430
aI431
aI432
aI433
aI434
aI435
aI436
aI437
aI438
aI439
aI440
aI441
aI442
aI443
aI444
aI445
aI446
aI447
aI448
aI449
aI450
aI451
aI452
aI453
aI454
aI455
aI456
aI457
aI458
aI459
aI460
aI461
aI462
aI463
aI464
aI465
aI466
aI467
aI468
aI469
aI470
aI471
aI472
aI473
aI474
aI475
aI476
aI477
aI478
aI479
aI480
aI481
aI482
aI483
aI484
aI485
aI486
aI487
aI488
aI489
aI490
aI491
aI492
aI493
aI494
aI495
aI496
aI497
aI498
aI499
aI500
aI501
aI502
aI503
aI504
aI505
aI506
aI507
aI508
aI509
aI510
aI511
aI512
aI513
aI514
aI515
aI516
aI517
aI518
aI519
aI520
aI521
aI522
aI523
aI524
aI525
aI526
aI527
aI528
aI529
aI530
aI531
aI532
aI533
aI534
aI535
aI536
aI537
aI538
aI539
aI540
aI541
aI542
aI543
aI544
aI545
aI546
aI547
aI548
aI549
aI550
aI551
aI552
aI553
aI554
aI555
aI556
aI557
aI558
aI559
aI560
aI561
aI562
aI563
aI564
aI565
aI566
aI567
aI568
aI569
aI570
aI571
aI572
aI573
aI574
aI575
aI576
aI577
aI578
aI579
aI580
aI581
aI582
aI583
aI584
aI585
aI586
aI587
aI588
aI589
aI590
aI591
aI592
aI593
aI594
aI595
aI596
aI597
aI598
aI599
aI600
aI601
aI602
aI603
aI604
aI605
aI606
aI607
aI608
aI609
aI610
aI611
aI612
aI613
aI615
aI616
aI617
aI618
aI619
aI620
aI621
aI622
aI623
aI624
aI625
aI626
aI627
aI628
aI629
aI630
aI631
aI632
aI633
aI634
aI635
aI636
aI637
aI638
aI639
aI640
aI641
aI642
aI643
aI644
aI645
aI646
aI647
aI648
aI649
aI650
aI651
aI652
aI653
aI654
aI655
aI656
aI657
aI658
aI659
aI660
aI661
aI662
aI663
aI664
aI665
aI666
aI667
aI668
aI669
aI670
aI671
aI672
aI673
aI674
aI675
aI676
aI677
aI678
aI679
aI680
aI681
aI682
aI683
aI684
aI685
aI686
aI687
aI688
aI689
aI690
aI691
aI692
aI693
aI694
aI695
aI696
aI697
aI698
aI699
aI700
aI701
aI702
aI703
aI704
aI705
aI706
aI707
aI708
aI709
aI710
aI711
aI712
aI713
aI714
aI715
aI716
aI717
aI718
aI719
aI720
aI721
aI722
aI723
aI724
aI725
aI726
aI727
aI728
aI729
aI730
aI731
aI732
aI733
aI734
aI735
aI736
aI737
aI738
aI739
aI740
aI741
aI742
aI743
aI744
aI745
aI746
aI747
aI748
aI749
aI750
aI751
aI752
aI753
aI754
aI755
aI756
aI757
aI758
aI759
aI760
aI761
aI762
aI763
aI764
aI765
aI766
aI767
aI768
aI769
aI770
aI771
aI772
aI773
aI774
aI775
aI776
aI777
aI778
aI779
aI780
aI781
aI782
aI783
aI784
aI785
aI786
aI787
aI788
aI789
aI790
aI791
aI792
aI793
aI794
aI795
aI796
aI797
aI798
aI799
aI800
aI801
aI802
aI803
aI804
aI805
aI806
aI807
aI808
aI809
aI810
aI811
aI812
aI813
aI814
aI815
aI816
aI817
aI818
aI819
aI820
aI821
aI822
aI823
aI824
aI825
aI826
aI827
aI828
aI829
aI830
aI831
aI832
aI833
aI834
aI835
aI836
aI837
aI838
aI839
aI840
aI841
aI842
aI843
aI844
aI845
aI846
aI847
aI848
aI849
aI850
aI851
aI852
aI853
aI854
aI855
aI856
aI857
aI858
aI859
aI860
aI861
aI862
aI863
aI864
aI865
aI866
assS'green'
p378
(dp379
g3
(lp380
I137
aI253
assS'make'
p381
(dp382
g3
(lp383
I251
aI944
assS'office'
p384
(dp385
g3
(lp386
I950
assS'hierarchy'
p387
(dp388
g3
(lp389
I790
aI832
assS'tropics'
p390
(dp391
g3
(lp392
I384
aI696
assS'over'
p393
(dp394
g55
(lp395
I16
aI20
assS'strongarm'
p396
(dp397
g3
(lp398
I136
aI186
aI249
assS'committee'
p399
(dp400
g3
(lp401
I34
aI134
aI253
aI887
assS'copyright'
p402
(dp403
g3
(lp404
I75
aI910
assS'before'
p405
(dp406
g3
(lp407
I486
aI488
aI594
aI820
assS'24'
p408
(dp409
g3
(lp410
I490
aI674
assS'25'
p411
(dp412
g3
(lp413
I285
aI329
aI330
aI728
assS'group'
p414
(dp415
g3
(lp416
I202
assS'21'
p417
(dp418
g3
(lp419
I496
aI720
assS'22'
p420
(dp421
g3
(lp422
I326
aI494
assS'23'
p423
(dp424
g3
(lp425
I492
aI580
assS'degrees'
p426
(dp427
g3
(lp428
I202
assS'decaffeinated'
p429
(dp430
g3
(lp431
I522
aI632
assS'2015'
p432
(dp433
g3
(lp434
I4
assS'weeks'
p435
(dp436
g3
(lp437
I490
aI492
aI494
aI496
aI498
aI500
aI502
aI504
aI506
aI508
aI510
aI512
aI514
aI516
aI596
aI598
aI600
aI602
aI604
aI606
aI608
aI610
aI612
assS'main'
p438
(dp439
g3
(lp440
I308
aI410
aI891
aI910
aI935
assS'2010'
p441
(dp442
g3
(lp443
I719
assS'them'
p444
(dp445
g55
(lp446
I6
assS'food'
p447
(dp448
g3
(lp449
I122
aI172
asg55
(lp450
I1
aI1
aI2
aI3
aI4
aI6
aI6
aI8
aI8
aI10
aI10
aI12
aI14
aI18
aI20
aI20
assS'matcher'
p451
(dp452
g55
(lp453
I12
assS'material'
p454
(dp455
g3
(lp456
I740
aI946
assS'awarding'
p457
(dp458
g3
(lp459
I257
assS'finish'
p460
(dp461
g3
(lp462
I112
aI160
assS'effects'
p463
(dp464
g3
(lp465
I331
aI392
aI704
assS'they'
p466
(dp467
g3
(lp468
I868
assS'front'
p469
(dp470
g3
(lp471
I271
assS'name'
p472
(dp473
g3
(lp474
I83
asg55
(lp475
I6
aI6
aI8
aI10
aI14
aI20
assS'capricorn'
p476
(dp477
g3
(lp478
I384
aI696
assS'augumenter'
p479
(dp480
g55
(lp481
I16
assS'university'
p482
(dp483
g3
(lp484
I126
aI139
aI176
aI200
aI255
assS'level'
p485
(dp486
g3
(lp487
I935
aI935
assS'l'
p488
(dp489
g3
(lp490
I138
aI253
aI464
assS'each'
p491
(dp492
g3
(lp493
I881
aI923
aI930
assS'found'
p494
(dp495
g3
(lp496
I19
aI53
aI394
aI708
aI877
aI923
aI925
aI928
aI932
assS'barerra'
p497
(dp498
g3
(lp499
I139
aI255
assS'identifier'
p500
(dp501
g55
(lp502
I1
aI2
aI3
aI4
aI6
aI16
assS'adobe'
p503
(dp504
g3
(lp505
I25
aI59
assS'revised'
p506
(dp507
g3
(lp508
I4
assS'related'
p509
(dp510
g55
(lp511
I10
assS'literature'
p512
(dp513
g3
(lp514
I285
aI329
aI686
assS'year'
p515
(dp516
g3
(lp517
I77
assS'margins'
p518
(dp519
g3
(lp520
I944
aI946
assS'revisions'
p521
(dp522
g3
(lp523
I251
aI904
assS'shown'
p524
(dp525
g3
(lp526
I313
assS'urbana'
p527
(dp528
g3
(lp529
I126
aI130
aI176
aI180
assS'research'
p530
(dp531
g3
(lp532
I33
aI137
assS'content'
p533
(dp534
g55
(lp535
I8
assS're'
p536
(dp537
g3
(lp538
I776
aI893
assS'participants'
p539
(dp540
g3
(lp541
I297
aI336
aI352
aI872
assS'health'
p542
(dp543
g3
(lp544
I331
asg55
(lp545
I10
aI10
aI12
aI22
assS'7'
p546
(dp547
g3
(lp548
I128
aI178
aI570
aI574
aI576
aI602
aI656
aI672
assS'reader'
p549
(dp550
g3
(lp551
I25
aI59
assS'correct'
p552
(dp553
g3
(lp554
I16
aI50
aI924
assS'philosophy'
p555
(dp556
g3
(lp557
I122
assS'associate'
p558
(dp559
g3
(lp560
I139
assS'favored'
p561
(dp562
g3
(lp563
I388
aI700
assS'members'
p564
(dp565
g3
(lp566
I34
aI253
assS'beginning'
p567
(dp568
g3
(lp569
I907
aI938
assS'benefits'
p570
(dp571
g3
(lp572
I344
assS'g'
p573
(dp574
g3
(lp575
I138
aI253
aI274
aI456
aI932
assS'bears'
p576
(dp577
g3
(lp578
I386
aI698
assS'fruit'
p579
(dp580
g3
(lp581
I386
aI386
aI394
aI396
aI698
aI698
aI708
aI710
assS'signature'
p582
(dp583
g3
(lp584
I67
assS'corrections'
p585
(dp586
g3
(lp587
I904
assS'first'
p588
(dp589
g3
(lp590
I89
aI388
aI396
aI410
aI700
aI710
aI741
aI769
aI794
aI816
aI848
aI909
aI923
assS'features'
p591
(dp592
g3
(lp593
I905
assS'nutritional'
p594
(dp595
g55
(lp596
I8
assS'number'
p597
(dp598
g3
(lp599
I33
aI67
aI588
aI820
aI821
aI823
aI824
aI826
aI924
assS'one'
p600
(dp601
g3
(lp602
I67
aI398
aI412
aI712
aI907
aI944
assS'proofreading'
p603
(dp604
g3
(lp605
I902
aI905
assS'done'
p606
(dp607
g3
(lp608
I398
aI712
assS'cups'
p609
(dp610
g3
(lp611
I519
aI522
aI629
aI632
assS'open'
p612
(dp613
g3
(lp614
I26
aI60
assS'size'
p615
(dp616
g55
(lp617
I2
aI2
aI6
assS'introduction'
p618
(dp619
g3
(lp620
I283
aI324
aI376
assS'top'
p621
(dp622
g3
(lp623
I100
aI102
aI148
aI156
assS'least'
p624
(dp625
g3
(lp626
I67
assS'their'
p627
(dp628
g3
(lp629
I202
assS'2'
p630
(dp631
g3
(lp632
I104
aI150
aI285
aI326
aI329
aI330
aI331
aI331
aI337
aI345
aI441
aI442
aI468
aI526
aI536
aI538
aI542
aI550
aI554
aI612
aI640
aI644
aI648
aI652
aI684
aI690
aI704
aI720
aI771
aI780
aI790
aI810
aI818
aI830
aI832
assS'master'
p633
(dp634
g3
(lp635
I45
aI67
aI154
aI172
aI207
assS'listed'
p636
(dp637
g3
(lp638
I921
aI924
aI925
assS'hundred'
p639
(dp640
g3
(lp641
I204
assS'final'
p642
(dp643
g3
(lp644
I34
aI200
assS'gives'
p645
(dp646
g55
(lp647
I12
assS'nutrition'
p648
(dp649
g3
(lp650
I122
aI172
assS'checklist'
p651
(dp652
g3
(lp653
I902
assS'completed'
p654
(dp655
g3
(lp656
I904
assS'exactly'
p657
(dp658
g3
(lp659
I925
assS'part'
p660
(dp661
g3
(lp662
I884
assS'flowers'
p663
(dp664
g3
(lp665
I386
aI698
assS'11'
p666
(dp667
g3
(lp668
I516
assS'distance'
p669
(dp670
g3
(lp671
I99
aI147
assS'13'
p672
(dp673
g3
(lp674
I512
assS'b'
p675
(dp676
g3
(lp677
I465
aI870
assS'15'
p678
(dp679
g3
(lp680
I508
assS'14'
p681
(dp682
g3
(lp683
I510
assS'showed'
p684
(dp685
g55
(lp686
I20
assS'16'
p687
(dp688
g3
(lp689
I506
assS'19'
p690
(dp691
g3
(lp692
I500
assS'18'
p693
(dp694
g3
(lp695
I502
assS'require'
p696
(dp697
g3
(lp698
I308
assS'tree'
p699
(dp700
g3
(lp701
I382
aI386
aI394
aI694
aI698
aI708
assS'submitted'
p702
(dp703
g3
(lp704
I120
aI170
assS'project'
p705
(dp706
g3
(lp707
I247
aI259
assS'matter'
p708
(dp709
g3
(lp710
I272
assS'r'
p711
(dp712
g3
(lp713
I454
assS'proofread'
p714
(dp715
g3
(lp716
I913
aI919
assS'function'
p717
(dp718
g3
(lp719
I30
aI64
asg55
(lp720
I1
aI1
aI2
aI3
aI4
aI6
aI8
aI10
aI12
aI14
aI16
assS'footnote'
p721
(dp722
g3
(lp723
I741
assS'turned'
p724
(dp725
g3
(lp726
I948
assS'headings'
p727
(dp728
g3
(lp729
I308
aI444
aI921
aI932
aI935
aI935
assS'have'
p730
(dp731
g3
(lp732
I247
aI904
aI939
assS'any'
p733
(dp734
g3
(lp735
I382
aI694
aI946
assS'contents'
p736
(dp737
g3
(lp738
I274
aI277
aI279
aI309
aI316
aI318
aI919
aI923
aI924
aI925
aI930
assS'form'
p739
(dp740
g3
(lp741
I9
aI26
aI28
aI43
aI60
aI62
aI917
aI948
aI948
assS'also'
p742
(dp743
g3
(lp744
I251
aI885
assS'recommended'
p745
(dp746
g3
(lp747
I27
aI61
assS'foreman'
p748
(dp749
g3
(lp750
I138
aI253
assS'begin'
p751
(dp752
g3
(lp753
I220
assS'sure'
p754
(dp755
g3
(lp756
I944
assS'multiple'
p757
(dp758
g3
(lp759
I484
aI866
assS'who'
p760
(dp761
g3
(lp762
I34
aI200
aI249
aI255
aI261
assS'chart'
p763
(dp764
g3
(lp765
I767
aI814
assS'most'
p766
(dp767
g3
(lp768
I406
assS'letter'
p769
(dp770
g3
(lp771
I821
assS'pages'
p772
(dp773
g3
(lp774
I0
aI590
aI907
aI909
aI909
aI910
aI938
aI939
aI944
assS'icon'
p775
(dp776
g55
(lp777
I20
assS'professor'
p778
(dp779
g3
(lp780
I136
aI137
aI138
aI139
aI186
assS'gather'
p781
(dp782
g3
(lp783
I876
assS'voting'
p784
(dp785
g3
(lp786
I33
assS'typically'
p787
(dp788
g3
(lp789
I231
assS'wording'
p790
(dp791
g3
(lp792
I924
assS'akhil'
p793
(dp794
g119
(lp795
I16
aI17
aI18
aI19
aI20
aI21
aI22
aI23
aI24
aI25
aI26
aI27
aI28
aI29
aI30
aI31
aI32
aI33
aI34
aI35
aI36
aI37
aI38
aI39
aI40
aI41
aI42
aI43
aI44
aI45
aI46
aI47
aI48
aI49
aI50
aI51
aI52
aI53
aI54
aI55
aI56
aI57
aI58
aI59
aI60
aI61
aI62
aI63
aI64
aI65
aI66
aI67
aI68
aI69
aI70
aI71
aI72
aI73
aI74
aI75
aI76
aI77
aI78
aI79
aI80
aI81
aI82
aI83
aI84
aI85
aI86
aI87
aI88
aI89
aI90
aI91
aI92
aI93
aI94
aI95
aI96
aI97
aI98
aI99
aI100
aI101
aI102
aI103
aI104
aI105
aI106
aI107
aI108
aI109
aI110
aI111
aI112
aI113
aI114
aI115
aI116
aI117
aI118
aI119
aI120
aI121
aI122
aI123
aI124
aI125
aI126
aI127
aI128
aI129
aI130
aI131
aI132
aI133
aI134
aI135
aI136
aI137
aI138
aI139
aI140
aI141
aI142
aI143
aI144
aI145
aI146
aI147
aI148
aI149
aI150
aI151
aI152
aI153
aI154
aI155
aI156
aI157
aI158
aI159
aI160
aI161
aI162
aI163
aI164
aI165
aI166
aI167
aI168
aI169
aI170
aI171
aI172
aI173
aI174
aI175
aI176
aI177
aI178
aI179
aI180
aI181
aI182
aI183
aI184
aI185
aI186
aI187
aI188
aI189
aI190
aI191
aI192
aI193
aI194
aI195
aI196
aI197
aI198
aI199
aI200
aI201
aI202
aI203
aI204
aI205
aI206
aI207
aI208
aI209
aI210
aI211
aI212
aI213
aI214
aI215
aI216
aI217
aI218
aI219
aI220
aI221
aI222
aI223
aI224
aI225
aI226
aI227
aI228
aI229
aI230
aI231
aI232
aI233
aI234
aI235
aI236
aI237
aI238
aI239
aI240
aI241
aI242
aI243
aI244
aI245
aI246
aI247
aI248
aI249
aI250
aI251
aI252
aI253
aI254
aI255
aI256
aI257
aI258
aI259
aI260
aI261
aI262
aI263
aI264
aI265
aI266
aI267
aI268
aI269
aI270
aI271
aI272
aI273
aI274
aI275
aI276
aI277
aI278
aI279
aI280
aI281
aI282
aI283
aI284
aI285
aI286
aI287
aI288
aI289
aI290
aI291
aI292
aI293
aI294
aI295
aI296
aI297
aI298
aI299
aI300
aI301
aI302
aI303
aI304
aI305
aI306
aI307
aI308
aI309
aI310
aI311
aI312
aI313
aI314
aI315
aI316
aI317
aI318
aI319
aI320
aI321
aI322
aI323
aI324
aI325
aI326
aI327
aI328
aI329
aI330
aI331
aI332
aI333
aI334
aI335
aI336
aI337
aI338
aI339
aI340
aI341
aI342
aI343
aI344
aI345
aI346
aI347
aI348
aI349
aI350
aI351
aI352
aI353
aI354
aI355
aI356
aI357
aI358
aI359
aI360
aI361
aI362
aI363
aI364
aI365
aI366
aI367
aI368
aI369
aI370
aI371
aI372
aI373
aI374
aI375
aI376
aI377
aI378
aI379
aI380
aI381
aI382
aI383
aI384
aI385
aI386
aI387
aI388
aI389
aI390
aI391
aI392
aI393
aI394
aI395
aI396
aI397
aI398
aI399
aI400
aI401
aI402
aI403
aI404
aI405
aI406
aI407
aI408
aI409
aI410
aI411
aI412
aI413
aI414
aI415
aI416
aI417
aI418
aI419
aI420
aI421
aI422
aI423
aI424
aI425
aI426
aI427
aI428
aI429
aI430
aI431
aI432
aI433
aI434
aI435
aI436
aI437
aI438
aI439
aI440
aI441
aI442
aI443
aI444
aI445
aI446
aI447
aI448
aI449
aI450
aI451
aI452
aI453
aI454
aI455
aI456
aI457
aI458
aI459
aI460
aI461
aI462
aI463
aI464
aI465
aI466
aI467
aI468
aI469
aI470
aI471
aI472
aI473
aI474
aI475
aI476
aI477
aI478
aI479
aI480
aI481
aI482
aI483
aI484
aI485
aI486
aI487
aI488
aI489
aI490
aI491
aI492
aI493
aI494
aI495
aI496
aI497
aI498
aI499
aI500
aI501
aI502
aI503
aI504
aI505
aI506
aI507
aI508
aI509
aI510
aI511
aI512
aI513
aI514
aI515
aI516
aI517
aI518
aI519
aI520
aI521
aI522
aI523
aI524
aI525
aI526
aI527
aI528
aI529
aI530
aI531
aI532
aI533
aI534
aI535
aI536
aI537
aI538
aI539
aI540
aI541
aI542
aI543
aI544
aI545
aI546
aI547
aI548
aI549
aI550
aI551
aI552
aI553
aI554
aI555
aI556
aI557
aI558
aI559
aI560
aI561
aI562
aI563
aI564
aI565
aI566
aI567
aI568
aI569
aI570
aI571
aI572
aI573
aI574
aI575
aI576
aI577
aI578
aI579
aI580
aI581
aI582
aI583
aI584
aI585
aI586
aI587
aI588
aI589
aI590
aI591
aI592
aI593
aI594
aI595
aI596
aI597
aI598
aI599
aI600
aI601
aI602
aI603
aI604
aI605
aI606
aI607
aI608
aI609
aI610
aI611
aI612
aI613
aI615
aI616
aI617
aI618
aI619
aI620
aI621
aI622
aI623
aI624
aI625
aI626
aI627
aI628
aI629
aI630
aI631
aI632
aI633
aI634
aI635
aI636
aI637
aI638
aI639
aI640
aI641
aI642
aI643
aI644
aI645
aI646
aI647
aI648
aI649
aI650
aI651
aI652
aI653
aI654
aI655
aI656
aI657
aI658
aI659
aI660
aI661
aI662
aI663
aI664
aI665
aI666
aI667
aI668
aI669
aI670
aI671
aI672
aI673
aI674
aI675
aI676
aI677
aI678
aI679
aI680
aI681
aI682
aI683
aI684
aI685
aI686
aI687
aI688
aI689
aI690
aI691
aI692
aI693
aI694
aI695
aI696
aI697
aI698
aI699
aI700
aI701
aI702
aI703
aI704
aI705
aI706
aI707
aI708
aI709
aI710
aI711
aI712
aI713
aI714
aI715
aI716
aI717
aI718
aI719
aI720
aI721
aI722
aI723
aI724
aI725
aI726
aI727
aI728
aI729
aI730
aI731
aI732
aI733
aI734
aI735
aI736
aI737
aI738
aI739
aI740
aI741
aI742
aI743
aI744
aI745
aI746
aI747
aI748
aI749
aI750
aI751
aI752
aI753
aI754
aI755
aI756
aI757
aI758
aI759
aI760
aI761
aI762
aI763
aI764
aI765
aI766
aI767
aI768
aI769
aI770
aI771
aI772
aI773
aI774
aI775
aI776
aI777
aI778
aI779
aI780
aI781
aI782
aI783
aI784
aI785
aI786
aI787
aI788
aI789
aI790
aI791
aI792
aI793
aI794
aI795
aI796
aI797
aI798
aI799
aI800
aI801
aI802
aI803
aI804
aI805
aI806
aI807
aI808
aI809
aI810
aI811
aI812
aI813
aI814
aI815
aI816
aI817
aI818
aI819
aI820
aI821
aI822
aI823
aI824
aI825
aI826
aI827
aI828
aI829
aI830
aI831
aI832
aI833
aI834
aI835
aI836
aI837
aI838
aI839
aI840
aI841
aI842
aI843
aI844
aI845
aI846
aI847
aI848
aI849
aI850
aI851
aI852
aI853
aI854
aI855
aI856
aI857
aI858
aI859
aI860
aI861
aI862
aI863
aI864
aI865
aI866
assS'signatures'
p796
(dp797
g3
(lp798
I33
aI67
assS'text'
p799
(dp800
g3
(lp801
I372
aI410
aI891
aI910
aI923
aI926
aI930
aI932
assS'chapters'
p802
(dp803
g3
(lp804
I932
assS'lettered'
p805
(dp806
g3
(lp807
I869
assS'copyrighted'
p808
(dp809
g3
(lp810
I740
assS'find'
p811
(dp812
g55
(lp813
I6
assS'completion'
p814
(dp815
g3
(lp816
I257
assS'based'
p817
(dp818
g55
(lp819
I14
assS'northern'
p820
(dp821
g3
(lp822
I139
assS'laurence'
p823
(dp824
g3
(lp825
I136
aI186
aI249
assS'guidance'
p826
(dp827
g3
(lp828
I255
assS'3'
p829
(dp830
g3
(lp831
I106
aI152
aI287
aI335
aI336
aI337
aI338
aI338
aI532
aI556
aI566
aI610
aI646
aI668
aI670
assS'only'
p832
(dp833
g3
(lp834
I271
aI948
assS'equivalents'
p835
(dp836
g3
(lp837
I932
assS'8'
p838
(dp839
g3
(lp840
I132
aI182
aI578
aI600
aI634
assS'inferior'
p841
(dp842
g3
(lp843
I402
aI716
assS'do'
p844
(dp845
g3
(lp846
I21
aI55
aI91
aI274
aI776
aI826
aI893
aI904
aI905
assS'means'
p847
(dp848
g3
(lp849
I259
assS'assistant'
p850
(dp851
g3
(lp852
I138
assS'foremost'
p853
(dp854
g3
(lp855
I388
aI700
assS'12'
p856
(dp857
g3
(lp858
I514
assS'17'
p859
(dp860
g3
(lp861
I504
assS'fields'
p862
(dp863
g3
(lp864
I28
aI62
assS'remove'
p865
(dp866
g3
(lp867
I396
aI710
assS'acknowledgments'
p868
(dp869
g3
(lp870
I243
aI245
assS'processed'
p871
(dp872
g55
(lp873
I1
aI2
aI3
aI4
assS'x'
p874
(dp875
g3
(lp876
I940
aI940
assS'grad'
p877
(dp878
g3
(lp879
I7
aI41
aI73
aI95
aI145
aI192
aI227
aI241
aI269
aI305
aI363
aI425
aI482
aI584
aI678
aI749
aI806
aI860
aI900
aI954
assS'husband'
p880
(dp881
g3
(lp882
I261
assS'knowing'
p883
(dp884
g3
(lp885
I408
assS'set'
p886
(dp887
g3
(lp888
I736
assS'statistical'
p889
(dp890
g3
(lp891
I338
assS'defense'
p892
(dp893
g3
(lp894
I34
aI486
aI489
aI595
assS'college'
p895
(dp896
g3
(lp897
I6
aI39
aI41
aI71
aI73
aI93
aI95
aI124
aI143
aI145
aI174
aI190
aI192
aI225
aI227
aI239
aI241
aI257
aI267
aI269
aI303
aI305
aI307
aI361
aI363
aI370
aI423
aI425
aI480
aI482
aI582
aI584
aI676
aI678
aI745
aI749
aI804
aI806
aI858
aI860
aI898
aI900
aI950
aI952
aI954
assS'are'
p898
(dp899
g3
(lp900
I200
aI273
aI311
aI394
aI708
aI867
aI909
aI909
aI921
aI934
aI935
aI935
aI939
assS'encouraged'
p901
(dp902
g3
(lp903
I311
assS'ways'
p904
(dp905
g3
(lp906
I398
aI712
assS'subsequent'
p907
(dp908
g3
(lp909
I588
assS'review'
p910
(dp911
g3
(lp912
I285
aI329
aI719
assS'formatted'
p913
(dp914
g3
(lp915
I934
aI935
aI935
assS'label'
p916
(dp917
g3
(lp918
I940
assS'written'
p919
(dp920
g3
(lp921
I216
assS'between'
p922
(dp923
g3
(lp924
I384
aI696
assS'numerous'
p925
(dp926
g3
(lp927
I251
aI261
assS'1reprinted'
p928
(dp929
g3
(lp930
I719
assS'available'
p931
(dp932
g3
(lp933
I39
aI71
aI93
aI143
aI190
aI225
aI239
aI267
aI303
aI361
aI423
aI480
aI582
aI676
aI745
aI804
aI858
aI898
aI952
assS'exam'
p934
(dp935
g3
(lp936
I34
assS'missing'
p937
(dp938
g3
(lp939
I909
assS'confusion'
p940
(dp941
g3
(lp942
I251
assS'dedication'
p943
(dp944
g3
(lp945
I229
aI233
assS'20'
p946
(dp947
g3
(lp948
I498
assS'optional'
p949
(dp950
g3
(lp951
I75
aI87
aI229
assS'climate'
p952
(dp953
g3
(lp954
I384
aI696
assS'providing'
p955
(dp956
g3
(lp957
I259
assS'last'
p958
(dp959
g3
(lp960
I944
assS'always'
p961
(dp962
g3
(lp963
I263
aI402
aI716
assS'many'
p964
(dp965
g3
(lp966
I249
aI249
aI388
aI700
assS'conclusions'
p967
(dp968
g3
(lp969
I293
aI348
assS'against'
p970
(dp971
g3
(lp972
I923
aI928
assS'display'
p973
(dp974
g3
(lp975
I410
aI911
assS'etc'
p976
(dp977
g3
(lp978
I870
aI928
aI934
assS's'
p979
(dp980
g3
(lp981
I45
aI67
aI67
aI154
aI207
aI452
aI462
aI948
asg55
(lp982
I18
aI18
assS'figures'
p983
(dp984
g3
(lp985
I326
aI761
aI769
aI780
aI794
aI812
aI816
aI830
aI848
aI928
aI938
aI938
aI939
aI942
assS'pdf'
p986
(dp987
g3
(lp988
I23
aI57
assS'finds'
p989
(dp990
g55
(lp991
I1
aI2
aI3
aI4
aI8
aI10
assS'comes'
p992
(dp993
g3
(lp994
I382
aI694
assS'among'
p995
(dp996
g3
(lp997
I330
aI690
assS'cancer'
p998
(dp999
g3
(lp1000
I384
aI696
assS'simple'
p1001
(dp1002
g3
(lp1003
I759
assS'62'
p1004
(dp1005
g3
(lp1006
I338
assS'approval'
p1007
(dp1008
g3
(lp1009
I9
aI43
aI68
aI68
aI917
assS'69'
p1010
(dp1011
g3
(lp1012
I289
aI341
assS'expensive'
p1013
(dp1014
g3
(lp1015
I400
aI714
assS'been'
p1016
(dp1017
g3
(lp1018
I247
aI876
aI904
assS'much'
p1019
(dp1020
g3
(lp1021
I400
aI714
assS'parents'
p1022
(dp1023
g3
(lp1024
I261
assS'4'
p1025
(dp1026
g3
(lp1027
I289
aI341
aI524
aI530
aI540
aI560
aI562
aI564
aI608
aI662
aI666
assS'through'
p1028
(dp1029
g3
(lp1030
I932
aI938
aI944
assS'offered'
p1031
(dp1032
g3
(lp1033
I255
assS'c'
p1034
(dp1035
g3
(lp1036
I870
assS'roasting'
p1037
(dp1038
g3
(lp1039
I404
aI406
assS'uin'
p1040
(dp1041
g3
(lp1042
I13
aI47
assS'161'
p1043
(dp1044
g3
(lp1045
I720
assS'those'
p1046
(dp1047
g3
(lp1048
I923
aI928
assS'multi'
p1049
(dp1050
g3
(lp1051
I939
assS'look'
p1052
(dp1053
g3
(lp1054
I944
assS'these'
p1055
(dp1056
g3
(lp1057
I396
aI710
assS'batch'
p1058
(dp1059
g3
(lp1060
I408
assS'n'
p1061
(dp1062
g3
(lp1063
I460
assS'endured'
p1064
(dp1065
g3
(lp1066
I263
assS'cont'
p1067
(dp1068
g3
(lp1069
I592
aI940
assS'ripe'
p1070
(dp1071
g3
(lp1072
I386
aI698
assS'almost'
p1073
(dp1074
g3
(lp1075
I382
aI694
assS'vi'
p1076
(dp1077
g3
(lp1078
I281
aI322
assS'coffee'
p1079
(dp1080
g3
(lp1081
I110
aI158
aI325
aI330
aI380
aI382
aI386
aI388
aI394
aI404
aI406
aI486
aI690
aI694
aI698
aI700
aI704
aI708
aI719
aI719
assS'iv'
p1082
(dp1083
g3
(lp1084
I265
assS'helped'
p1085
(dp1086
g3
(lp1087
I251
assS'itself'
p1088
(dp1089
g3
(lp1090
I913
aI919
assS'garvie'
p1091
(dp1092
g3
(lp1093
I81
aI116
aI164
aI719
assS'arabic'
p1094
(dp1095
g3
(lp1096
I412
assS'rotated'
p1097
(dp1098
g3
(lp1099
I437
aI446
assS'if'
p1100
(dp1101
g3
(lp1102
I87
aI866
aI910
aI921
aI928
assS'different'
p1103
(dp1104
g3
(lp1105
I408
assS'present'
p1106
(dp1107
g55
(lp1108
I6
assS'doctor'
p1109
(dp1110
g3
(lp1111
I122
assS'perform'
p1112
(dp1113
g3
(lp1114
I930
aI942
assS'thesis'
p1115
(dp1116
g3
(lp1117
I0
aI7
aI9
aI23
aI39
aI41
aI43
aI57
aI71
aI73
aI89
aI93
aI95
aI143
aI145
aI168
aI190
aI192
aI207
aI225
aI227
aI239
aI241
aI267
aI269
aI303
aI305
aI361
aI363
aI423
aI425
aI480
aI482
aI486
aI489
aI582
aI584
aI595
aI676
aI678
aI745
aI749
aI804
aI806
aI858
aI860
aI877
aI881
aI884
aI886
aI898
aI900
aI902
aI907
aI917
aI938
aI944
aI946
aI950
aI952
aI954
assS'roman'
p1118
(dp1119
g3
(lp1120
I221
assS'same'
p1121
(dp1122
g3
(lp1123
I386
aI698
aI930
aI942
assS'member'
p1124
(dp1125
g3
(lp1126
I68
assS'matches'
p1127
(dp1128
g3
(lp1129
I925
asg55
(lp1130
I18
aI18
assS'9'
p1131
(dp1132
g3
(lp1133
I598
assS'grows'
p1134
(dp1135
g3
(lp1136
I382
aI694
assS'difficult'
p1137
(dp1138
g3
(lp1139
I406
assS'week'
p1140
(dp1141
g3
(lp1142
I614
assS'used'
p1143
(dp1144
g3
(lp1145
I31
aI65
aI876
assS'comprehensive'
p1146
(dp1147
g3
(lp1148
I198
assS'director'
p1149
(dp1150
g3
(lp1151
I33
aI137
assS'levels'
p1152
(dp1153
g3
(lp1154
I313
assS'uses'
p1155
(dp1156
g55
(lp1157
I6
assS'user'
p1158
(dp1159
g3
(lp1160
I905
asg55
(lp1161
I12
aI12
aI18
aI22
aI22
assS'student'
p1162
(dp1163
g3
(lp1164
I34
aI67
aI948
assS'numbered'
p1165
(dp1166
g3
(lp1167
I91
aI909
aI939
assS'lower'
p1168
(dp1169
g3
(lp1170
I313
assS'database'
p1171
(dp1172
g55
(lp1173
I8
aI10
aI22
aI24
assS'i'
p1174
(dp1175
g3
(lp1176
I457
aI909
assS'changes'
p1177
(dp1178
g3
(lp1179
I950
assS'49'
p1180
(dp1181
g3
(lp1182
I336
assS'analysis'
p1183
(dp1184
g3
(lp1185
I338
assS'without'
p1186
(dp1187
g3
(lp1188
I247
assS'english'
p1189
(dp1190
g3
(lp1191
I216
assS'position'
p1192
(dp1193
g55
(lp1194
I4
aI4
aI16
assS'numbering'
p1195
(dp1196
g3
(lp1197
I759
aI773
aI776
aI810
aI889
aI894
aI925
assS'reviewed'
p1198
(dp1199
g3
(lp1200
I885
assS'matchers'
p1201
(dp1202
g55
(lp1203
I14
assS'shape'
p1204
(dp1205
g55
(lp1206
I1
aI1
aI6
assS'thanks'
p1207
(dp1208
g3
(lp1209
I249
aI253
aI255
aI261
assS'human'
p1210
(dp1211
g3
(lp1212
I122
aI172
assS'graduate'
p1213
(dp1214
g3
(lp1215
I6
aI39
aI41
aI68
aI71
aI73
aI93
aI95
aI110
aI124
aI143
aI145
aI158
aI174
aI190
aI192
aI200
aI225
aI227
aI239
aI241
aI257
aI267
aI269
aI303
aI305
aI307
aI361
aI363
aI368
aI423
aI425
aI480
aI482
aI582
aI584
aI676
aI678
aI745
aI749
aI804
aI806
aI858
aI860
aI898
aI900
aI950
aI952
aI954
assS'previous'
p1216
(dp1217
g3
(lp1218
I773
assS'tables'
p1219
(dp1220
g3
(lp1221
I326
aI761
aI769
aI780
aI796
aI812
aI816
aI830
aI850
aI928
aI942
assS'doctoral'
p1222
(dp1223
g3
(lp1224
I11
aI33
aI97
aI134
aI202
aI204
aI207
aI887
assS'bibliography'
p1225
(dp1226
g3
(lp1227
I934
assS'generator'
p1228
(dp1229
g55
(lp1230
I14
assS'mother'
p1231
(dp1232
g3
(lp1233
I235
assS'intends'
p1234
(dp1235
g3
(lp1236
I905
assS'source'
p1237
(dp1238
g3
(lp1239
I388
aI700
assS'extends'
p1240
(dp1241
g3
(lp1242
I946
assS'location'
p1243
(dp1244
g55
(lp1245
I16
assS'wet'
p1246
(dp1247
g3
(lp1248
I398
aI398
aI712
aI712
assS'5'
p1249
(dp1250
g3
(lp1251
I106
aI108
aI108
aI128
aI152
aI166
aI166
aI178
aI291
aI343
aI344
aI345
aI528
aI534
aI558
aI572
aI606
aI658
aI664
assS'has'
p1252
(dp1253
g3
(lp1254
I876
assS'match'
p1255
(dp1256
g3
(lp1257
I18
aI52
aI915
assS'harvesting'
p1258
(dp1259
g3
(lp1260
I396
aI710
assS'read'
p1261
(dp1262
g3
(lp1263
I249
assS'showing'
p1264
(dp1265
g3
(lp1266
I767
aI814
assS'possible'
p1267
(dp1268
g3
(lp1269
I247
assS'makes'
p1270
(dp1271
g55
(lp1272
I14
assS'appendices'
p1273
(dp1274
g3
(lp1275
I867
assS'color'
p1276
(dp1277
g55
(lp1278
I3
aI3
aI6
assS'like'
p1279
(dp1280
g3
(lp1281
I382
aI694
assS'd'
p1282
(dp1283
g3
(lp1284
I459
assS'signal'
p1285
(dp1286
g55
(lp1287
I12
aI14
aI18
assS'51'
p1288
(dp1289
g3
(lp1290
I337
assS'specific'
p1291
(dp1292
g55
(lp1293
I12
aI18
aI22
assS'continue'
p1294
(dp1295
g3
(lp1296
I773
aI890
assS't'
p1297
(dp1298
g3
(lp1299
I249
aI467
assS'january'
p1300
(dp1301
g3
(lp1302
I4
assS'output'
p1303
(dp1304
g55
(lp1305
I16
assS'decimal'
p1306
(dp1307
g3
(lp1308
I810
aI820
aI823
assS'www'
p1309
(dp1310
g3
(lp1311
I41
aI73
aI95
aI145
aI192
aI227
aI241
aI269
aI305
aI363
aI425
aI482
aI584
aI678
aI749
aI806
aI860
aI900
aI954
assS'people'
p1312
(dp1313
g3
(lp1314
I249
assS'some'
p1315
(dp1316
g3
(lp1317
I251
aI876
asg55
(lp1318
I18
aI18
assS'identified'
p1319
(dp1320
g55
(lp1321
I1
aI2
aI3
aI4
aI6
aI20
assS'110'
p1322
(dp1323
g3
(lp1324
I299
aI353
aI896
assS'table'
p1325
(dp1326
g3
(lp1327
I277
aI279
aI316
aI318
aI448
aI484
aI486
aI586
aI592
aI919
aI921
aI924
aI925
aI930
assS'images'
p1328
(dp1329
g55
(lp1330
I24
assS'questionnaire'
p1331
(dp1332
g3
(lp1333
I297
aI352
aI872
aI876
aI878
assS'provided'
p1334
(dp1335
g55
(lp1336
I16
assS'shrub'
p1337
(dp1338
g3
(lp1339
I382
aI694
assS'bottom'
p1340
(dp1341
g3
(lp1342
I141
aI188
assS'recorded'
p1343
(dp1344
g3
(lp1345
I915
assS'does'
p1346
(dp1347
g3
(lp1348
I307
aI948
assS'provider'
p1349
(dp1350
g55
(lp1351
I8
aI10
assS'anne'
p1352
(dp1353
g3
(lp1354
I81
aI116
aI164
assS'limitations'
p1355
(dp1356
g3
(lp1357
I345
assS'be'
p1358
(dp1359
g3
(lp1360
I16
aI50
aI68
aI87
aI216
aI446
aI869
aI877
aI880
aI885
aI948
aI950
asg55
(lp1361
I20
aI20
assS'journal'
p1362
(dp1363
g3
(lp1364
I719
assS'processing'
p1365
(dp1366
g3
(lp1367
I392
aI398
aI398
aI400
aI400
aI406
aI712
aI712
aI714
aI714
assS'step'
p1368
(dp1369
g3
(lp1370
I396
aI710
assS'although'
p1371
(dp1372
g3
(lp1373
I400
aI714
assS'stage'
p1374
(dp1375
g3
(lp1376
I406
assS'chapter'
p1377
(dp1378
g3
(lp1379
I283
aI285
aI287
aI289
aI291
aI293
aI324
aI329
aI335
aI341
aI343
aI348
aI374
aI684
aI743
aI761
aI771
aI774
aI780
aI798
aI810
aI812
aI818
aI821
aI824
aI830
aI852
aI921
aI932
aI934
assS'completing'
p1380
(dp1381
g3
(lp1382
I202
assS'conferral'
p1383
(dp1384
g3
(lp1385
I79
assS'page'
p1386
(dp1387
g3
(lp1388
I19
aI53
aI75
aI85
aI87
aI89
aI91
aI97
aI100
aI102
aI141
aI148
aI154
aI156
aI188
aI220
aI229
aI233
aI243
aI372
aI410
aI445
aI484
aI743
aI769
aI794
aI816
aI848
aI864
aI880
aI889
aI909
aI909
aI909
aI910
aI910
aI910
aI911
aI913
aI915
aI923
aI939
aI946
assS'seeds'
p1389
(dp1390
g3
(lp1391
I394
aI708
assS'ensure'
p1392
(dp1393
g3
(lp1394
I907
assS'permission'
p1395
(dp1396
g3
(lp1397
I719
assS'software'
p1398
(dp1399
g3
(lp1400
I905
assS'previously'
p1401
(dp1402
g3
(lp1403
I738
assS'image'
p1404
(dp1405
g55
(lp1406
I1
aI2
aI3
aI4
aI6
aI16
aI24
aI24
assS'within'
p1407
(dp1408
g3
(lp1409
I394
aI708
aI824
assS'references'
p1410
(dp1411
g3
(lp1412
I295
aI350
assS'frames'
p1413
(dp1414
g55
(lp1415
I16
aI24
aI24
assS'financial'
p1416
(dp1417
g3
(lp1418
I259
assS'consecutively'
p1419
(dp1420
g3
(lp1421
I909
aI939
assS'your'
p1422
(dp1423
g3
(lp1424
I904
aI905
assS'rely'
p1425
(dp1426
g3
(lp1427
I905
assS'additional'
p1428
(dp1429
g3
(lp1430
I68
assS'support'
p1431
(dp1432
g3
(lp1433
I247
aI255
aI263
assS'there'
p1434
(dp1435
g3
(lp1436
I212
assS'hazards'
p1437
(dp1438
g55
(lp1439
I10
aI12
aI12
aI18
aI22
aI22
aI22
assS'long'
p1440
(dp1441
g3
(lp1442
I263
assS'approved'
p1443
(dp1444
g3
(lp1445
I886
assS'start'
p1446
(dp1447
g3
(lp1448
I776
aI893
assS'joseph'
p1449
(dp1450
g3
(lp1451
I137
aI253
assS'dissertations'
p1452
(dp1453
g3
(lp1454
I112
aI160
assS'sections'
p1455
(dp1456
g3
(lp1457
I272
assS'files'
p1458
(dp1459
g3
(lp1460
I885
assS'head'
p1461
(dp1462
g3
(lp1463
I34
aI69
assS'complete'
p1464
(dp1465
g3
(lp1466
I259
assS'inches'
p1467
(dp1468
g3
(lp1469
I104
aI106
aI108
aI128
aI132
aI150
aI152
aI166
aI178
aI182
assS'6'
p1470
(dp1471
g3
(lp1472
I293
aI348
aI568
aI604
aI660
assS'extended'
p1473
(dp1474
g3
(lp1475
I316
assS'automated'
p1476
(dp1477
g3
(lp1478
I905
assS'e'
p1479
(dp1480
g3
(lp1481
I274
aI453
aI463
aI932
assS'line'
p1482
(dp1483
g3
(lp1484
I682
aI736
assS'trying'
p1485
(dp1486
g3
(lp1487
I112
aI160
assS'true'
p1488
(dp1489
g3
(lp1490
I400
aI714
asg55
(lp1491
I18
aI18
assS'count'
p1492
(dp1493
g3
(lp1494
I91
assS'places'
p1495
(dp1496
g55
(lp1497
I16
assS'placed'
p1498
(dp1499
g3
(lp1500
I273
aI939
assS'89'
p1501
(dp1502
g3
(lp1503
I291
aI343
assS'limit'
p1504
(dp1505
g3
(lp1506
I212
assS'stages'
p1507
(dp1508
g3
(lp1509
I202
assS'average'
p1510
(dp1511
g3
(lp1512
I518
aI521
aI628
aI631
assS'strongly'
p1513
(dp1514
g3
(lp1515
I27
aI61
assS'abstract'
p1516
(dp1517
g3
(lp1518
I194
aI196
aI206
aI220
aI275
assS'general'
p1519
(dp1520
g3
(lp1521
I331
assS'warning'
p1522
(dp1523
g55
(lp1524
I12
aI14
aI14
aI18
aI20
assS'file'
p1525
(dp1526
g3
(lp1527
I23
aI57
aI864
aI877
aI882
assS'check'
p1528
(dp1529
g3
(lp1530
I907
aI921
aI923
aI924
aI928
aI930
aI930
aI932
aI938
aI942
aI942
aI944
assS'fill'
p1531
(dp1532
g3
(lp1533
I26
aI60
assS'no'
p1534
(dp1535
g3
(lp1536
I212
aI907
aI944
aI948
assS'not'
p1537
(dp1538
g3
(lp1539
I21
aI28
aI55
aI62
aI91
aI231
aI247
aI274
aI308
aI312
aI367
aI400
aI714
aI776
aI826
aI893
aI904
aI905
aI948
aI948
assS'when'
p1540
(dp1541
g3
(lp1542
I30
aI64
assS'40'
p1543
(dp1544
g3
(lp1545
I287
aI335
assS'illinois'
p1546
(dp1547
g3
(lp1548
I7
aI41
aI73
aI95
aI126
aI130
aI139
aI145
aI176
aI180
aI192
aI200
aI227
aI241
aI257
aI269
aI305
aI363
aI425
aI482
aI584
aI678
aI749
aI806
aI860
aI900
aI954
assS'other'
p1549
(dp1550
g3
(lp1551
I910
aI946
assS'compares'
p1552
(dp1553
g55
(lp1554
I12
assS'department'
p1555
(dp1556
g3
(lp1557
I34
aI69
aI904
assS'tif'
p1558
(dp1559
g3
(lp1560
I878
assS'10'
p1561
(dp1562
g3
(lp1563
I596
assS'requested'
p1564
(dp1565
g3
(lp1566
I904
aI950
assS'repeat'
p1567
(dp1568
g3
(lp1569
I930
assS'generates'
p1570
(dp1571
g55
(lp1572
I16
assS'students'
p1573
(dp1574
g3
(lp1575
I11
aI33
aI45
aI67
aI97
aI110
aI154
aI158
aI200
aI204
aI311
aI330
aI690
aI902
assS'included'
p1576
(dp1577
g3
(lp1578
I87
aI232
aI868
aI880
aI910
aI921
aI928
assS'friends'
p1579
(dp1580
g3
(lp1581
I261
assS'implies'
p1582
(dp1583
g55
(lp1584
I18
assS'required'
p1585
(dp1586
g3
(lp1587
I33
aI67
aI194
aI206
aI368
assS'daily'
p1588
(dp1589
g3
(lp1590
I518
aI521
aI628
aI631
assS'strings'
p1591
(dp1592
g55
(lp1593
I22
assS'u'
p1594
(dp1595
g3
(lp1596
I455
assS'time'
p1597
(dp1598
g3
(lp1599
I386
aI488
aI594
aI698
aI907
aI944
assS'nutrient'
p1600
(dp1601
g55
(lp1602
I8
assS'hello'
p1603
(dp1604
g119
(lp1605
I0
aI1
aI2
aI3
aI4
aI5
aI6
aI7
aI8
aI9
aI10
aI11
aI12
aI13
aI14
aI15
aI15
ass.